                                      1 ;--------------------------------------------------------
                                      2 ; File Created by SDCC : free open source ANSI-C Compiler
                                      3 ; Version 3.5.5 #9380 (Linux)
                                      4 ; This file was generated Tue Nov 17 16:52:51 2015
                                      5 ;--------------------------------------------------------
                                      6 	.module gcr
                                      7 	.optsdcc -mmcs51 --model-large
                                      8 	
                                      9 ;--------------------------------------------------------
                                     10 ; Public variables in this module
                                     11 ;--------------------------------------------------------
                                     12 	.globl _gcr_get_decoded
                                     13 	.globl _gcr_valid
                                     14 	.globl _gcr_decode
                                     15 	.globl _gcr_get_encoded
                                     16 	.globl _gcr_encode
                                     17 	.globl _gcr_finished
                                     18 	.globl _gcr_init
                                     19 ;--------------------------------------------------------
                                     20 ; special function registers
                                     21 ;--------------------------------------------------------
                                     22 	.area RSEG    (ABS,DATA)
      000000                         23 	.org 0x0000
                                     24 ;--------------------------------------------------------
                                     25 ; special function bits
                                     26 ;--------------------------------------------------------
                                     27 	.area RSEG    (ABS,DATA)
      000000                         28 	.org 0x0000
                                     29 ;--------------------------------------------------------
                                     30 ; overlayable register banks
                                     31 ;--------------------------------------------------------
                                     32 	.area REG_BANK_0	(REL,OVR,DATA)
      000000                         33 	.ds 8
                                     34 ;--------------------------------------------------------
                                     35 ; internal ram data
                                     36 ;--------------------------------------------------------
                                     37 	.area DSEG    (DATA)
                                     38 ;--------------------------------------------------------
                                     39 ; overlayable items in internal ram 
                                     40 ;--------------------------------------------------------
                                     41 ;--------------------------------------------------------
                                     42 ; indirectly addressable internal ram data
                                     43 ;--------------------------------------------------------
                                     44 	.area ISEG    (DATA)
                                     45 ;--------------------------------------------------------
                                     46 ; absolute internal ram data
                                     47 ;--------------------------------------------------------
                                     48 	.area IABS    (ABS,DATA)
                                     49 	.area IABS    (ABS,DATA)
                                     50 ;--------------------------------------------------------
                                     51 ; bit data
                                     52 ;--------------------------------------------------------
                                     53 	.area BSEG    (BIT)
                                     54 ;--------------------------------------------------------
                                     55 ; paged external ram data
                                     56 ;--------------------------------------------------------
                                     57 	.area PSEG    (PAG,XDATA)
                                     58 ;--------------------------------------------------------
                                     59 ; external ram data
                                     60 ;--------------------------------------------------------
                                     61 	.area XSEG    (XDATA)
                                     62 ;--------------------------------------------------------
                                     63 ; absolute external ram data
                                     64 ;--------------------------------------------------------
                                     65 	.area XABS    (ABS,XDATA)
                                     66 ;--------------------------------------------------------
                                     67 ; external initialized ram data
                                     68 ;--------------------------------------------------------
                                     69 	.area XISEG   (XDATA)
      000000                         70 _gcr_bits:
      000000                         71 	.ds 1
      000001                         72 _gcr_val:
      000001                         73 	.ds 2
                                     74 	.area HOME    (CODE)
                                     75 	.area GSINIT0 (CODE)
                                     76 	.area GSINIT1 (CODE)
                                     77 	.area GSINIT2 (CODE)
                                     78 	.area GSINIT3 (CODE)
                                     79 	.area GSINIT4 (CODE)
                                     80 	.area GSINIT5 (CODE)
                                     81 	.area GSINIT  (CODE)
                                     82 	.area GSFINAL (CODE)
                                     83 	.area CSEG    (CODE)
                                     84 ;--------------------------------------------------------
                                     85 ; global & static initialisations
                                     86 ;--------------------------------------------------------
                                     87 	.area HOME    (CODE)
                                     88 	.area GSINIT  (CODE)
                                     89 	.area GSFINAL (CODE)
                                     90 	.area GSINIT  (CODE)
                                     91 ;--------------------------------------------------------
                                     92 ; Home
                                     93 ;--------------------------------------------------------
                                     94 	.area HOME    (CODE)
                                     95 	.area HOME    (CODE)
                                     96 ;--------------------------------------------------------
                                     97 ; code
                                     98 ;--------------------------------------------------------
                                     99 	.area CSEG    (CODE)
                                    100 ;------------------------------------------------------------
                                    101 ;Allocation info for local variables in function 'gcr_init'
                                    102 ;------------------------------------------------------------
                                    103 ;	/opt/contiki/core/lib/gcr.c:67: void gcr_init() {
                                    104 ;	-----------------------------------------
                                    105 ;	 function gcr_init
                                    106 ;	-----------------------------------------
      000000                        107 _gcr_init:
                           000007   108 	ar7 = 0x07
                           000006   109 	ar6 = 0x06
                           000005   110 	ar5 = 0x05
                           000004   111 	ar4 = 0x04
                           000003   112 	ar3 = 0x03
                           000002   113 	ar2 = 0x02
                           000001   114 	ar1 = 0x01
                           000000   115 	ar0 = 0x00
                                    116 ;	/opt/contiki/core/lib/gcr.c:68: gcr_val = 0;
      000000 90r00r01         [24]  117 	mov	dptr,#_gcr_val
      000003 E4               [12]  118 	clr	a
      000004 F0               [24]  119 	movx	@dptr,a
      000005 A3               [24]  120 	inc	dptr
      000006 F0               [24]  121 	movx	@dptr,a
                                    122 ;	/opt/contiki/core/lib/gcr.c:69: gcr_bits = 0;
      000007 90r00r00         [24]  123 	mov	dptr,#_gcr_bits
      00000A F0               [24]  124 	movx	@dptr,a
      00000B 22               [24]  125 	ret
                                    126 ;------------------------------------------------------------
                                    127 ;Allocation info for local variables in function 'gcr_finished'
                                    128 ;------------------------------------------------------------
                                    129 ;	/opt/contiki/core/lib/gcr.c:73: unsigned char gcr_finished() {
                                    130 ;	-----------------------------------------
                                    131 ;	 function gcr_finished
                                    132 ;	-----------------------------------------
      00000C                        133 _gcr_finished:
                                    134 ;	/opt/contiki/core/lib/gcr.c:74: return gcr_bits == 0;
      00000C 90r00r00         [24]  135 	mov	dptr,#_gcr_bits
      00000F E0               [24]  136 	movx	a,@dptr
      000010 FF               [12]  137 	mov	r7,a
      000011 E4               [12]  138 	clr	a
      000012 BF 00 01         [24]  139 	cjne	r7,#0x00,00103$
      000015 04               [12]  140 	inc	a
      000016                        141 00103$:
      000016 F5 82            [12]  142 	mov	dpl,a
      000018 22               [24]  143 	ret
                                    144 ;------------------------------------------------------------
                                    145 ;Allocation info for local variables in function 'gcr_encode'
                                    146 ;------------------------------------------------------------
                                    147 ;raw_data                  Allocated to registers r7 
                                    148 ;------------------------------------------------------------
                                    149 ;	/opt/contiki/core/lib/gcr.c:78: void gcr_encode(unsigned char raw_data) {
                                    150 ;	-----------------------------------------
                                    151 ;	 function gcr_encode
                                    152 ;	-----------------------------------------
      000019                        153 _gcr_encode:
                                    154 ;	/opt/contiki/core/lib/gcr.c:80: ((GCR_encode[raw_data >> 4u] << 5u ) |
      000019 E5 82            [12]  155 	mov	a,dpl
      00001B FF               [12]  156 	mov	r7,a
      00001C C4               [12]  157 	swap	a
      00001D 54 0F            [12]  158 	anl	a,#0x0F
      00001F 90r00r00         [24]  159 	mov	dptr,#_GCR_encode
      000022 93               [24]  160 	movc	a,@a+dptr
      000023 FE               [12]  161 	mov	r6,a
      000024 E4               [12]  162 	clr	a
      000025 23               [12]  163 	rl	a
      000026 54 E0            [12]  164 	anl	a,#0xE0
      000028 CE               [12]  165 	xch	a,r6
      000029 C4               [12]  166 	swap	a
      00002A 23               [12]  167 	rl	a
      00002B CE               [12]  168 	xch	a,r6
      00002C 6E               [12]  169 	xrl	a,r6
      00002D CE               [12]  170 	xch	a,r6
      00002E 54 E0            [12]  171 	anl	a,#0xE0
      000030 CE               [12]  172 	xch	a,r6
      000031 6E               [12]  173 	xrl	a,r6
      000032 FD               [12]  174 	mov	r5,a
                                    175 ;	/opt/contiki/core/lib/gcr.c:81: GCR_encode[raw_data & 0xf]) << gcr_bits;
      000033 74 0F            [12]  176 	mov	a,#0x0F
      000035 5F               [12]  177 	anl	a,r7
      000036 90r00r00         [24]  178 	mov	dptr,#_GCR_encode
      000039 93               [24]  179 	movc	a,@a+dptr
      00003A 7C 00            [12]  180 	mov	r4,#0x00
      00003C 42 06            [12]  181 	orl	ar6,a
      00003E EC               [12]  182 	mov	a,r4
      00003F 42 05            [12]  183 	orl	ar5,a
      000041 90r00r00         [24]  184 	mov	dptr,#_gcr_bits
      000044 E0               [24]  185 	movx	a,@dptr
      000045 FF               [12]  186 	mov	r7,a
      000046 8F F0            [24]  187 	mov	b,r7
      000048 05 F0            [12]  188 	inc	b
      00004A 80 06            [24]  189 	sjmp	00104$
      00004C                        190 00103$:
      00004C EE               [12]  191 	mov	a,r6
      00004D 2E               [12]  192 	add	a,r6
      00004E FE               [12]  193 	mov	r6,a
      00004F ED               [12]  194 	mov	a,r5
      000050 33               [12]  195 	rlc	a
      000051 FD               [12]  196 	mov	r5,a
      000052                        197 00104$:
      000052 D5 F0 F7         [24]  198 	djnz	b,00103$
      000055 90r00r01         [24]  199 	mov	dptr,#_gcr_val
      000058 E0               [24]  200 	movx	a,@dptr
      000059 FB               [12]  201 	mov	r3,a
      00005A A3               [24]  202 	inc	dptr
      00005B E0               [24]  203 	movx	a,@dptr
      00005C FC               [12]  204 	mov	r4,a
      00005D 90r00r01         [24]  205 	mov	dptr,#_gcr_val
      000060 EE               [12]  206 	mov	a,r6
      000061 4B               [12]  207 	orl	a,r3
      000062 F0               [24]  208 	movx	@dptr,a
      000063 ED               [12]  209 	mov	a,r5
      000064 4C               [12]  210 	orl	a,r4
      000065 A3               [24]  211 	inc	dptr
      000066 F0               [24]  212 	movx	@dptr,a
                                    213 ;	/opt/contiki/core/lib/gcr.c:82: gcr_bits += 10;
      000067 90r00r00         [24]  214 	mov	dptr,#_gcr_bits
      00006A 74 0A            [12]  215 	mov	a,#0x0A
      00006C 2F               [12]  216 	add	a,r7
      00006D F0               [24]  217 	movx	@dptr,a
      00006E 22               [24]  218 	ret
                                    219 ;------------------------------------------------------------
                                    220 ;Allocation info for local variables in function 'gcr_get_encoded'
                                    221 ;------------------------------------------------------------
                                    222 ;raw_data                  Allocated to registers r5 r6 r7 
                                    223 ;------------------------------------------------------------
                                    224 ;	/opt/contiki/core/lib/gcr.c:86: unsigned char gcr_get_encoded(unsigned char *raw_data) {
                                    225 ;	-----------------------------------------
                                    226 ;	 function gcr_get_encoded
                                    227 ;	-----------------------------------------
      00006F                        228 _gcr_get_encoded:
      00006F AD 82            [24]  229 	mov	r5,dpl
      000071 AE 83            [24]  230 	mov	r6,dph
      000073 AF F0            [24]  231 	mov	r7,b
                                    232 ;	/opt/contiki/core/lib/gcr.c:87: if (gcr_bits >= 8) {
      000075 90r00r00         [24]  233 	mov	dptr,#_gcr_bits
      000078 E0               [24]  234 	movx	a,@dptr
      000079 FC               [12]  235 	mov	r4,a
      00007A BC 08 00         [24]  236 	cjne	r4,#0x08,00108$
      00007D                        237 00108$:
      00007D 40 2D            [24]  238 	jc	00102$
                                    239 ;	/opt/contiki/core/lib/gcr.c:88: *raw_data = (unsigned char) (gcr_val & 0xff);
      00007F 90r00r01         [24]  240 	mov	dptr,#_gcr_val
      000082 E0               [24]  241 	movx	a,@dptr
      000083 FB               [12]  242 	mov	r3,a
      000084 A3               [24]  243 	inc	dptr
      000085 E0               [24]  244 	movx	a,@dptr
      000086 8D 82            [24]  245 	mov	dpl,r5
      000088 8E 83            [24]  246 	mov	dph,r6
      00008A 8F F0            [24]  247 	mov	b,r7
      00008C EB               [12]  248 	mov	a,r3
      00008D 12r00r00         [24]  249 	lcall	__gptrput
                                    250 ;	/opt/contiki/core/lib/gcr.c:89: gcr_val = gcr_val >> 8u;
      000090 90r00r01         [24]  251 	mov	dptr,#_gcr_val
      000093 E0               [24]  252 	movx	a,@dptr
      000094 A3               [24]  253 	inc	dptr
      000095 E0               [24]  254 	movx	a,@dptr
      000096 FE               [12]  255 	mov	r6,a
      000097 7F 00            [12]  256 	mov	r7,#0x00
      000099 90r00r01         [24]  257 	mov	dptr,#_gcr_val
      00009C EE               [12]  258 	mov	a,r6
      00009D F0               [24]  259 	movx	@dptr,a
      00009E EF               [12]  260 	mov	a,r7
      00009F A3               [24]  261 	inc	dptr
      0000A0 F0               [24]  262 	movx	@dptr,a
                                    263 ;	/opt/contiki/core/lib/gcr.c:90: gcr_bits = gcr_bits - 8;
      0000A1 90r00r00         [24]  264 	mov	dptr,#_gcr_bits
      0000A4 E0               [24]  265 	movx	a,@dptr
      0000A5 24 F8            [12]  266 	add	a,#0xF8
      0000A7 F0               [24]  267 	movx	@dptr,a
                                    268 ;	/opt/contiki/core/lib/gcr.c:91: return 1;
      0000A8 75 82 01         [24]  269 	mov	dpl,#0x01
      0000AB 22               [24]  270 	ret
      0000AC                        271 00102$:
                                    272 ;	/opt/contiki/core/lib/gcr.c:93: return 0;
      0000AC 75 82 00         [24]  273 	mov	dpl,#0x00
      0000AF 22               [24]  274 	ret
                                    275 ;------------------------------------------------------------
                                    276 ;Allocation info for local variables in function 'gcr_decode'
                                    277 ;------------------------------------------------------------
                                    278 ;gcr_data                  Allocated to registers r7 
                                    279 ;------------------------------------------------------------
                                    280 ;	/opt/contiki/core/lib/gcr.c:97: void gcr_decode(unsigned char gcr_data) {
                                    281 ;	-----------------------------------------
                                    282 ;	 function gcr_decode
                                    283 ;	-----------------------------------------
      0000B0                        284 _gcr_decode:
      0000B0 AF 82            [24]  285 	mov	r7,dpl
                                    286 ;	/opt/contiki/core/lib/gcr.c:98: gcr_val |= gcr_data << gcr_bits;
      0000B2 7E 00            [12]  287 	mov	r6,#0x00
      0000B4 90r00r00         [24]  288 	mov	dptr,#_gcr_bits
      0000B7 E0               [24]  289 	movx	a,@dptr
      0000B8 FD               [12]  290 	mov	r5,a
      0000B9 8D F0            [24]  291 	mov	b,r5
      0000BB 05 F0            [12]  292 	inc	b
      0000BD 80 06            [24]  293 	sjmp	00104$
      0000BF                        294 00103$:
      0000BF EF               [12]  295 	mov	a,r7
      0000C0 2F               [12]  296 	add	a,r7
      0000C1 FF               [12]  297 	mov	r7,a
      0000C2 EE               [12]  298 	mov	a,r6
      0000C3 33               [12]  299 	rlc	a
      0000C4 FE               [12]  300 	mov	r6,a
      0000C5                        301 00104$:
      0000C5 D5 F0 F7         [24]  302 	djnz	b,00103$
      0000C8 90r00r01         [24]  303 	mov	dptr,#_gcr_val
      0000CB E0               [24]  304 	movx	a,@dptr
      0000CC FB               [12]  305 	mov	r3,a
      0000CD A3               [24]  306 	inc	dptr
      0000CE E0               [24]  307 	movx	a,@dptr
      0000CF FC               [12]  308 	mov	r4,a
      0000D0 90r00r01         [24]  309 	mov	dptr,#_gcr_val
      0000D3 EF               [12]  310 	mov	a,r7
      0000D4 4B               [12]  311 	orl	a,r3
      0000D5 F0               [24]  312 	movx	@dptr,a
      0000D6 EE               [12]  313 	mov	a,r6
      0000D7 4C               [12]  314 	orl	a,r4
      0000D8 A3               [24]  315 	inc	dptr
      0000D9 F0               [24]  316 	movx	@dptr,a
                                    317 ;	/opt/contiki/core/lib/gcr.c:99: gcr_bits += 8;
      0000DA 90r00r00         [24]  318 	mov	dptr,#_gcr_bits
      0000DD 74 08            [12]  319 	mov	a,#0x08
      0000DF 2D               [12]  320 	add	a,r5
      0000E0 F0               [24]  321 	movx	@dptr,a
      0000E1 22               [24]  322 	ret
                                    323 ;------------------------------------------------------------
                                    324 ;Allocation info for local variables in function 'gcr_valid'
                                    325 ;------------------------------------------------------------
                                    326 ;val                       Allocated to registers r6 r7 
                                    327 ;------------------------------------------------------------
                                    328 ;	/opt/contiki/core/lib/gcr.c:103: unsigned char gcr_valid() {
                                    329 ;	-----------------------------------------
                                    330 ;	 function gcr_valid
                                    331 ;	-----------------------------------------
      0000E2                        332 _gcr_valid:
                                    333 ;	/opt/contiki/core/lib/gcr.c:104: if (gcr_bits >= 10) {
      0000E2 90r00r00         [24]  334 	mov	dptr,#_gcr_bits
      0000E5 E0               [24]  335 	movx	a,@dptr
      0000E6 FF               [12]  336 	mov	r7,a
      0000E7 BF 0A 00         [24]  337 	cjne	r7,#0x0A,00114$
      0000EA                        338 00114$:
      0000EA 40 59            [24]  339 	jc	00105$
                                    340 ;	/opt/contiki/core/lib/gcr.c:105: unsigned short val = gcr_val & 0x3ff;
      0000EC 90r00r01         [24]  341 	mov	dptr,#_gcr_val
      0000EF E0               [24]  342 	movx	a,@dptr
      0000F0 FE               [12]  343 	mov	r6,a
      0000F1 A3               [24]  344 	inc	dptr
      0000F2 E0               [24]  345 	movx	a,@dptr
      0000F3 FF               [12]  346 	mov	r7,a
      0000F4 53 07 03         [24]  347 	anl	ar7,#0x03
                                    348 ;	/opt/contiki/core/lib/gcr.c:106: if ((GCR_decode[val >> 5u] << 4u) == 0xff ||
      0000F7 8E 04            [24]  349 	mov	ar4,r6
      0000F9 EF               [12]  350 	mov	a,r7
      0000FA C4               [12]  351 	swap	a
      0000FB 03               [12]  352 	rr	a
      0000FC CC               [12]  353 	xch	a,r4
      0000FD C4               [12]  354 	swap	a
      0000FE 03               [12]  355 	rr	a
      0000FF 54 07            [12]  356 	anl	a,#0x07
      000101 6C               [12]  357 	xrl	a,r4
      000102 CC               [12]  358 	xch	a,r4
      000103 54 07            [12]  359 	anl	a,#0x07
      000105 CC               [12]  360 	xch	a,r4
      000106 6C               [12]  361 	xrl	a,r4
      000107 CC               [12]  362 	xch	a,r4
      000108 FD               [12]  363 	mov	r5,a
      000109 EC               [12]  364 	mov	a,r4
      00010A 24r10            [12]  365 	add	a,#_GCR_decode
      00010C F5 82            [12]  366 	mov	dpl,a
      00010E ED               [12]  367 	mov	a,r5
      00010F 34s00            [12]  368 	addc	a,#(_GCR_decode >> 8)
      000111 F5 83            [12]  369 	mov	dph,a
      000113 E4               [12]  370 	clr	a
      000114 93               [24]  371 	movc	a,@a+dptr
      000115 FD               [12]  372 	mov	r5,a
      000116 E4               [12]  373 	clr	a
      000117 C4               [12]  374 	swap	a
      000118 54 F0            [12]  375 	anl	a,#0xF0
      00011A CD               [12]  376 	xch	a,r5
      00011B C4               [12]  377 	swap	a
      00011C CD               [12]  378 	xch	a,r5
      00011D 6D               [12]  379 	xrl	a,r5
      00011E CD               [12]  380 	xch	a,r5
      00011F 54 F0            [12]  381 	anl	a,#0xF0
      000121 CD               [12]  382 	xch	a,r5
      000122 6D               [12]  383 	xrl	a,r5
      000123 FC               [12]  384 	mov	r4,a
      000124 BD FF 05         [24]  385 	cjne	r5,#0xFF,00116$
      000127 BC 00 02         [24]  386 	cjne	r4,#0x00,00116$
      00012A 80 15            [24]  387 	sjmp	00101$
      00012C                        388 00116$:
                                    389 ;	/opt/contiki/core/lib/gcr.c:107: (GCR_decode[val & 0x1f]) == 0xff) {
      00012C 53 06 1F         [24]  390 	anl	ar6,#0x1F
      00012F 7F 00            [12]  391 	mov	r7,#0x00
      000131 EE               [12]  392 	mov	a,r6
      000132 24r10            [12]  393 	add	a,#_GCR_decode
      000134 F5 82            [12]  394 	mov	dpl,a
      000136 EF               [12]  395 	mov	a,r7
      000137 34s00            [12]  396 	addc	a,#(_GCR_decode >> 8)
      000139 F5 83            [12]  397 	mov	dph,a
      00013B E4               [12]  398 	clr	a
      00013C 93               [24]  399 	movc	a,@a+dptr
      00013D FF               [12]  400 	mov	r7,a
      00013E BF FF 04         [24]  401 	cjne	r7,#0xFF,00105$
      000141                        402 00101$:
                                    403 ;	/opt/contiki/core/lib/gcr.c:108: return 0;
      000141 75 82 00         [24]  404 	mov	dpl,#0x00
      000144 22               [24]  405 	ret
      000145                        406 00105$:
                                    407 ;	/opt/contiki/core/lib/gcr.c:111: return 1;
      000145 75 82 01         [24]  408 	mov	dpl,#0x01
      000148 22               [24]  409 	ret
                                    410 ;------------------------------------------------------------
                                    411 ;Allocation info for local variables in function 'gcr_get_decoded'
                                    412 ;------------------------------------------------------------
                                    413 ;raw_data                  Allocated to registers r5 r6 r7 
                                    414 ;val                       Allocated to stack - sp -1
                                    415 ;------------------------------------------------------------
                                    416 ;	/opt/contiki/core/lib/gcr.c:115: unsigned char gcr_get_decoded(unsigned char *raw_data) {
                                    417 ;	-----------------------------------------
                                    418 ;	 function gcr_get_decoded
                                    419 ;	-----------------------------------------
      000149                        420 _gcr_get_decoded:
      000149 05 81            [12]  421 	inc	sp
      00014B 05 81            [12]  422 	inc	sp
      00014D AD 82            [24]  423 	mov	r5,dpl
      00014F AE 83            [24]  424 	mov	r6,dph
      000151 AF F0            [24]  425 	mov	r7,b
                                    426 ;	/opt/contiki/core/lib/gcr.c:116: if (gcr_bits >= 10) {
      000153 90r00r00         [24]  427 	mov	dptr,#_gcr_bits
      000156 E0               [24]  428 	movx	a,@dptr
      000157 FC               [12]  429 	mov	r4,a
      000158 BC 0A 00         [24]  430 	cjne	r4,#0x0A,00108$
      00015B                        431 00108$:
      00015B 40 7B            [24]  432 	jc	00102$
                                    433 ;	/opt/contiki/core/lib/gcr.c:117: unsigned short val = gcr_val & 0x3ff;
      00015D 90r00r01         [24]  434 	mov	dptr,#_gcr_val
      000160 E0               [24]  435 	movx	a,@dptr
      000161 FB               [12]  436 	mov	r3,a
      000162 A3               [24]  437 	inc	dptr
      000163 E0               [24]  438 	movx	a,@dptr
      000164 FC               [12]  439 	mov	r4,a
      000165 A8 81            [24]  440 	mov	r0,sp
      000167 18               [12]  441 	dec	r0
      000168 A6 03            [24]  442 	mov	@r0,ar3
      00016A 74 03            [12]  443 	mov	a,#0x03
      00016C 5C               [12]  444 	anl	a,r4
      00016D 08               [12]  445 	inc	r0
      00016E F6               [12]  446 	mov	@r0,a
                                    447 ;	/opt/contiki/core/lib/gcr.c:118: *raw_data = (unsigned char) ((GCR_decode[val >> 5] << 4) |
      00016F A8 81            [24]  448 	mov	r0,sp
      000171 18               [12]  449 	dec	r0
      000172 86 02            [24]  450 	mov	ar2,@r0
      000174 08               [12]  451 	inc	r0
      000175 E6               [12]  452 	mov	a,@r0
      000176 C4               [12]  453 	swap	a
      000177 03               [12]  454 	rr	a
      000178 CA               [12]  455 	xch	a,r2
      000179 C4               [12]  456 	swap	a
      00017A 03               [12]  457 	rr	a
      00017B 54 07            [12]  458 	anl	a,#0x07
      00017D 6A               [12]  459 	xrl	a,r2
      00017E CA               [12]  460 	xch	a,r2
      00017F 54 07            [12]  461 	anl	a,#0x07
      000181 CA               [12]  462 	xch	a,r2
      000182 6A               [12]  463 	xrl	a,r2
      000183 CA               [12]  464 	xch	a,r2
      000184 FC               [12]  465 	mov	r4,a
      000185 EA               [12]  466 	mov	a,r2
      000186 24r10            [12]  467 	add	a,#_GCR_decode
      000188 F5 82            [12]  468 	mov	dpl,a
      00018A EC               [12]  469 	mov	a,r4
      00018B 34s00            [12]  470 	addc	a,#(_GCR_decode >> 8)
      00018D F5 83            [12]  471 	mov	dph,a
      00018F E4               [12]  472 	clr	a
      000190 93               [24]  473 	movc	a,@a+dptr
      000191 C4               [12]  474 	swap	a
      000192 54 F0            [12]  475 	anl	a,#0xF0
      000194 FC               [12]  476 	mov	r4,a
                                    477 ;	/opt/contiki/core/lib/gcr.c:119: (GCR_decode[val & 0x1f]));
      000195 A8 81            [24]  478 	mov	r0,sp
      000197 18               [12]  479 	dec	r0
      000198 74 1F            [12]  480 	mov	a,#0x1F
      00019A 56               [12]  481 	anl	a,@r0
      00019B FA               [12]  482 	mov	r2,a
      00019C 7B 00            [12]  483 	mov	r3,#0x00
      00019E 24r10            [12]  484 	add	a,#_GCR_decode
      0001A0 F5 82            [12]  485 	mov	dpl,a
      0001A2 EB               [12]  486 	mov	a,r3
      0001A3 34s00            [12]  487 	addc	a,#(_GCR_decode >> 8)
      0001A5 F5 83            [12]  488 	mov	dph,a
      0001A7 E4               [12]  489 	clr	a
      0001A8 93               [24]  490 	movc	a,@a+dptr
      0001A9 FB               [12]  491 	mov	r3,a
      0001AA 42 04            [12]  492 	orl	ar4,a
      0001AC 8D 82            [24]  493 	mov	dpl,r5
      0001AE 8E 83            [24]  494 	mov	dph,r6
      0001B0 8F F0            [24]  495 	mov	b,r7
      0001B2 EC               [12]  496 	mov	a,r4
      0001B3 12r00r00         [24]  497 	lcall	__gptrput
                                    498 ;	/opt/contiki/core/lib/gcr.c:120: gcr_val = gcr_val >> 10;
      0001B6 90r00r01         [24]  499 	mov	dptr,#_gcr_val
      0001B9 E0               [24]  500 	movx	a,@dptr
      0001BA A3               [24]  501 	inc	dptr
      0001BB E0               [24]  502 	movx	a,@dptr
      0001BC 03               [12]  503 	rr	a
      0001BD 03               [12]  504 	rr	a
      0001BE 54 3F            [12]  505 	anl	a,#0x3F
      0001C0 FE               [12]  506 	mov	r6,a
      0001C1 7F 00            [12]  507 	mov	r7,#0x00
      0001C3 90r00r01         [24]  508 	mov	dptr,#_gcr_val
      0001C6 EE               [12]  509 	mov	a,r6
      0001C7 F0               [24]  510 	movx	@dptr,a
      0001C8 EF               [12]  511 	mov	a,r7
      0001C9 A3               [24]  512 	inc	dptr
      0001CA F0               [24]  513 	movx	@dptr,a
                                    514 ;	/opt/contiki/core/lib/gcr.c:121: gcr_bits = gcr_bits - 10;
      0001CB 90r00r00         [24]  515 	mov	dptr,#_gcr_bits
      0001CE E0               [24]  516 	movx	a,@dptr
      0001CF FF               [12]  517 	mov	r7,a
      0001D0 24 F6            [12]  518 	add	a,#0xF6
      0001D2 F0               [24]  519 	movx	@dptr,a
                                    520 ;	/opt/contiki/core/lib/gcr.c:122: return 1;
      0001D3 75 82 01         [24]  521 	mov	dpl,#0x01
      0001D6 80 03            [24]  522 	sjmp	00103$
      0001D8                        523 00102$:
                                    524 ;	/opt/contiki/core/lib/gcr.c:124: return 0;
      0001D8 75 82 00         [24]  525 	mov	dpl,#0x00
      0001DB                        526 00103$:
      0001DB 15 81            [12]  527 	dec	sp
      0001DD 15 81            [12]  528 	dec	sp
      0001DF 22               [24]  529 	ret
                                    530 	.area CSEG    (CODE)
                                    531 	.area CONST   (CODE)
      000000                        532 _GCR_encode:
      000000 0A                     533 	.db #0x0A	; 10
      000001 0B                     534 	.db #0x0B	; 11
      000002 12                     535 	.db #0x12	; 18
      000003 13                     536 	.db #0x13	; 19
      000004 0E                     537 	.db #0x0E	; 14
      000005 0F                     538 	.db #0x0F	; 15
      000006 16                     539 	.db #0x16	; 22
      000007 17                     540 	.db #0x17	; 23
      000008 09                     541 	.db #0x09	; 9
      000009 19                     542 	.db #0x19	; 25
      00000A 1A                     543 	.db #0x1A	; 26
      00000B 1B                     544 	.db #0x1B	; 27
      00000C 0D                     545 	.db #0x0D	; 13
      00000D 1D                     546 	.db #0x1D	; 29
      00000E 1E                     547 	.db #0x1E	; 30
      00000F 15                     548 	.db #0x15	; 21
      000010                        549 _GCR_decode:
      000010 FF                     550 	.db #0xFF	; 255
      000011 FF                     551 	.db #0xFF	; 255
      000012 FF                     552 	.db #0xFF	; 255
      000013 FF                     553 	.db #0xFF	; 255
      000014 FF                     554 	.db #0xFF	; 255
      000015 FF                     555 	.db #0xFF	; 255
      000016 FF                     556 	.db #0xFF	; 255
      000017 FF                     557 	.db #0xFF	; 255
      000018 FF                     558 	.db #0xFF	; 255
      000019 08                     559 	.db #0x08	; 8
      00001A 00                     560 	.db #0x00	; 0
      00001B 01                     561 	.db #0x01	; 1
      00001C FF                     562 	.db #0xFF	; 255
      00001D 0C                     563 	.db #0x0C	; 12
      00001E 04                     564 	.db #0x04	; 4
      00001F 05                     565 	.db #0x05	; 5
      000020 FF                     566 	.db #0xFF	; 255
      000021 FF                     567 	.db #0xFF	; 255
      000022 02                     568 	.db #0x02	; 2
      000023 03                     569 	.db #0x03	; 3
      000024 FF                     570 	.db #0xFF	; 255
      000025 0F                     571 	.db #0x0F	; 15
      000026 06                     572 	.db #0x06	; 6
      000027 07                     573 	.db #0x07	; 7
      000028 FF                     574 	.db #0xFF	; 255
      000029 09                     575 	.db #0x09	; 9
      00002A 0A                     576 	.db #0x0A	; 10
      00002B 0B                     577 	.db #0x0B	; 11
      00002C FF                     578 	.db #0xFF	; 255
      00002D 0D                     579 	.db #0x0D	; 13
      00002E 0E                     580 	.db #0x0E	; 14
      00002F FF                     581 	.db #0xFF	; 255
                                    582 	.area XINIT   (CODE)
      000000                        583 __xinit__gcr_bits:
      000000 00                     584 	.db #0x00	; 0
      000001                        585 __xinit__gcr_val:
      000001 00 00                  586 	.byte #0x00,#0x00	; 0
                                    587 	.area CABS    (ABS,CODE)
