                                      1 ;--------------------------------------------------------
                                      2 ; File Created by SDCC : free open source ANSI-C Compiler
                                      3 ; Version 3.5.5 #9380 (Linux)
                                      4 ; This file was generated Wed Nov 18 02:57:37 2015
                                      5 ;--------------------------------------------------------
                                      6 	.module nullrdc
                                      7 	.optsdcc -mmcs51 --model-huge
                                      8 	
                                      9 ;--------------------------------------------------------
                                     10 ; Public variables in this module
                                     11 ;--------------------------------------------------------
                                     12 	.globl _nullrdc_driver
                                     13 	.globl _watchdog_periodic
                                     14 	.globl _queuebuf_to_packetbuf
                                     15 	.globl _packetbuf_holds_broadcast
                                     16 	.globl _packetbuf_addr
                                     17 	.globl _packetbuf_set_addr
                                     18 	.globl _packetbuf_set_attr
                                     19 	.globl _packetbuf_totlen
                                     20 	.globl _packetbuf_datalen
                                     21 	.globl _packetbuf_hdrptr
                                     22 	.globl _linkaddr_cmp
                                     23 	.globl _mac_call_sent_callback
                                     24 	.globl _mac_sequence_register_seqno
                                     25 	.globl _mac_sequence_is_duplicate
                                     26 	.globl _ACTIVE
                                     27 	.globl _TX_BYTE
                                     28 	.globl _RX_BYTE
                                     29 	.globl _ERR
                                     30 	.globl _FE
                                     31 	.globl _SLAVE
                                     32 	.globl _RE
                                     33 	.globl _MODE
                                     34 	.globl _T3OVFIF
                                     35 	.globl _T3CH0IF
                                     36 	.globl _T3CH1IF
                                     37 	.globl _T4OVFIF
                                     38 	.globl _T4CH0IF
                                     39 	.globl _T4CH1IF
                                     40 	.globl _OVFIM
                                     41 	.globl _B_0
                                     42 	.globl _B_1
                                     43 	.globl _B_2
                                     44 	.globl _B_3
                                     45 	.globl _B_4
                                     46 	.globl _B_5
                                     47 	.globl _B_6
                                     48 	.globl _B_7
                                     49 	.globl _P2IF
                                     50 	.globl _UTX0IF
                                     51 	.globl _UTX1IF
                                     52 	.globl _P1IF
                                     53 	.globl _WDTIF
                                     54 	.globl _ACC_0
                                     55 	.globl _ACC_1
                                     56 	.globl _ACC_2
                                     57 	.globl _ACC_3
                                     58 	.globl _ACC_4
                                     59 	.globl _ACC_5
                                     60 	.globl _ACC_6
                                     61 	.globl _ACC_7
                                     62 	.globl _P
                                     63 	.globl _F1
                                     64 	.globl _OV
                                     65 	.globl _RS0
                                     66 	.globl _RS1
                                     67 	.globl _F0
                                     68 	.globl _AC
                                     69 	.globl _CY
                                     70 	.globl _DMAIF
                                     71 	.globl _T1IF
                                     72 	.globl _T2IF
                                     73 	.globl _T3IF
                                     74 	.globl _T4IF
                                     75 	.globl _P0IF
                                     76 	.globl _STIF
                                     77 	.globl _DMAIE
                                     78 	.globl _T1IE
                                     79 	.globl _T2IE
                                     80 	.globl _T3IE
                                     81 	.globl _T4IE
                                     82 	.globl _P0IE
                                     83 	.globl _RFERRIE
                                     84 	.globl _ADCIE
                                     85 	.globl _URX0IE
                                     86 	.globl _URX1IE
                                     87 	.globl _ENCIE
                                     88 	.globl _STIE
                                     89 	.globl _EA
                                     90 	.globl _P2_0
                                     91 	.globl _P2_1
                                     92 	.globl _P2_2
                                     93 	.globl _P2_3
                                     94 	.globl _P2_4
                                     95 	.globl _P2_5
                                     96 	.globl _P2_6
                                     97 	.globl _P2_7
                                     98 	.globl _ENCIF_0
                                     99 	.globl _ENCIF_1
                                    100 	.globl _P1_0
                                    101 	.globl _P1_1
                                    102 	.globl _P1_2
                                    103 	.globl _P1_3
                                    104 	.globl _P1_4
                                    105 	.globl _P1_5
                                    106 	.globl _P1_6
                                    107 	.globl _P1_7
                                    108 	.globl _IT0
                                    109 	.globl _RFERRIF
                                    110 	.globl _IT1
                                    111 	.globl _URX0IF
                                    112 	.globl _ADCIF
                                    113 	.globl _URX1IF
                                    114 	.globl _P0_0
                                    115 	.globl _P0_1
                                    116 	.globl _P0_2
                                    117 	.globl _P0_3
                                    118 	.globl _P0_4
                                    119 	.globl _P0_5
                                    120 	.globl _P0_6
                                    121 	.globl _P0_7
                                    122 	.globl _WDCTL
                                    123 	.globl _U1GCR
                                    124 	.globl _U1UCR
                                    125 	.globl _U1BAUD
                                    126 	.globl _U1DBUF
                                    127 	.globl _U1CSR
                                    128 	.globl _U0GCR
                                    129 	.globl _U0UCR
                                    130 	.globl _U0BAUD
                                    131 	.globl _U0DBUF
                                    132 	.globl _U0CSR
                                    133 	.globl _TIMIF
                                    134 	.globl _T4CC1
                                    135 	.globl _T4CCTL1
                                    136 	.globl _T4CC0
                                    137 	.globl _T4CCTL0
                                    138 	.globl _T4CTL
                                    139 	.globl _T4CNT
                                    140 	.globl _T3CC1
                                    141 	.globl _T3CCTL1
                                    142 	.globl _T3CC0
                                    143 	.globl _T3CCTL0
                                    144 	.globl _T3CTL
                                    145 	.globl _T3CNT
                                    146 	.globl _T2MSEL
                                    147 	.globl _T2IRQM
                                    148 	.globl _T2MOVF2
                                    149 	.globl _T2MOVF1
                                    150 	.globl _T2MOVF0
                                    151 	.globl _T2M1
                                    152 	.globl _T2M0
                                    153 	.globl _T2IRQF
                                    154 	.globl _T2EVTCFG
                                    155 	.globl _T2CTRL
                                    156 	.globl _T1STAT
                                    157 	.globl _T1CCTL2
                                    158 	.globl _T1CCTL1
                                    159 	.globl _T1CCTL0
                                    160 	.globl _T1CTL
                                    161 	.globl _T1CNTH
                                    162 	.globl _T1CNTL
                                    163 	.globl _T1CC2H
                                    164 	.globl _T1CC2L
                                    165 	.globl _T1CC1H
                                    166 	.globl _T1CC1L
                                    167 	.globl _T1CC0H
                                    168 	.globl _T1CC0L
                                    169 	.globl _CLKCONSTA
                                    170 	.globl _CLKCONCMD
                                    171 	.globl _SLEEPSTA
                                    172 	.globl _SLEEPCMD
                                    173 	.globl _STLOAD
                                    174 	.globl _ST2
                                    175 	.globl _ST1
                                    176 	.globl _ST0
                                    177 	.globl _RFERRF
                                    178 	.globl _RFIRQF0
                                    179 	.globl _RFST
                                    180 	.globl _RFD
                                    181 	.globl _RFIRQF1
                                    182 	.globl _PSBANK
                                    183 	.globl _FMAP
                                    184 	.globl _MEMCTR
                                    185 	.globl __XPAGE
                                    186 	.globl _MPAGE
                                    187 	.globl _PMUX
                                    188 	.globl _P2DIR
                                    189 	.globl _P1DIR
                                    190 	.globl _P0DIR
                                    191 	.globl _P2INP
                                    192 	.globl _P1INP
                                    193 	.globl _P2SEL
                                    194 	.globl _P1SEL
                                    195 	.globl _P0SEL
                                    196 	.globl _APCFG
                                    197 	.globl _PERCFG
                                    198 	.globl _P0INP
                                    199 	.globl _P2IEN
                                    200 	.globl _P1IEN
                                    201 	.globl _P0IEN
                                    202 	.globl _PICTL
                                    203 	.globl _P2IFG
                                    204 	.globl _P1IFG
                                    205 	.globl _P0IFG
                                    206 	.globl _DMAREQ
                                    207 	.globl _DMAARM
                                    208 	.globl _DMA0CFGH
                                    209 	.globl _DMA0CFGL
                                    210 	.globl _DMA1CFGH
                                    211 	.globl _DMA1CFGL
                                    212 	.globl _DMAIRQ
                                    213 	.globl _ENCCS
                                    214 	.globl _ENCDO
                                    215 	.globl _ENCDI
                                    216 	.globl _RNDH
                                    217 	.globl _RNDL
                                    218 	.globl _ADCH
                                    219 	.globl _ADCL
                                    220 	.globl _ADCCON3
                                    221 	.globl _ADCCON2
                                    222 	.globl _ADCCON1
                                    223 	.globl _B
                                    224 	.globl _IRCON2
                                    225 	.globl _ACC
                                    226 	.globl _PSW
                                    227 	.globl _IRCON
                                    228 	.globl _IP1
                                    229 	.globl _IEN1
                                    230 	.globl _IP0
                                    231 	.globl _IEN0
                                    232 	.globl _P2
                                    233 	.globl _S1CON
                                    234 	.globl _IEN2
                                    235 	.globl _S0CON
                                    236 	.globl _DPS
                                    237 	.globl _P1
                                    238 	.globl _TCON
                                    239 	.globl _PCON
                                    240 	.globl _DPH1
                                    241 	.globl _DPL1
                                    242 	.globl _DPH0
                                    243 	.globl _DPL0
                                    244 	.globl _SP
                                    245 	.globl _P0
                                    246 	.globl _X_IEEE_ADDR
                                    247 	.globl _X_INFOPAGE
                                    248 	.globl _X_P2DIR
                                    249 	.globl _X_P1DIR
                                    250 	.globl _X_P0DIR
                                    251 	.globl _X_U1GCR
                                    252 	.globl _X_U1UCR
                                    253 	.globl _X_U1BAUD
                                    254 	.globl _X_U1DBUF
                                    255 	.globl _X_U1CSR
                                    256 	.globl _X_P2INP
                                    257 	.globl _X_P1INP
                                    258 	.globl _X_P2SEL
                                    259 	.globl _X_P1SEL
                                    260 	.globl _X_P0SEL
                                    261 	.globl _X_APCFG
                                    262 	.globl _X_PERCFG
                                    263 	.globl _X_T4CC1
                                    264 	.globl _X_T4CCTL1
                                    265 	.globl _X_T4CC0
                                    266 	.globl _X_T4CCTL0
                                    267 	.globl _X_T4CTL
                                    268 	.globl _X_T4CNT
                                    269 	.globl _X_RFIRQF0
                                    270 	.globl _X_T1CCTL2
                                    271 	.globl _X_T1CCTL1
                                    272 	.globl _X_T1CCTL0
                                    273 	.globl _X_T1CTL
                                    274 	.globl _X_T1CNTH
                                    275 	.globl _X_T1CNTL
                                    276 	.globl _X_RFST
                                    277 	.globl _X_T1CC2H
                                    278 	.globl _X_T1CC2L
                                    279 	.globl _X_T1CC1H
                                    280 	.globl _X_T1CC1L
                                    281 	.globl _X_T1CC0H
                                    282 	.globl _X_T1CC0L
                                    283 	.globl _X_RFD
                                    284 	.globl _X_TIMIF
                                    285 	.globl _X_DMAREQ
                                    286 	.globl _X_DMAARM
                                    287 	.globl _X_DMA0CFGH
                                    288 	.globl _X_DMA0CFGL
                                    289 	.globl _X_DMA1CFGH
                                    290 	.globl _X_DMA1CFGL
                                    291 	.globl _X_DMAIRQ
                                    292 	.globl _X_T3CC1
                                    293 	.globl _X_T3CCTL1
                                    294 	.globl _X_T3CC0
                                    295 	.globl _X_T3CCTL0
                                    296 	.globl _X_T3CTL
                                    297 	.globl _X_T3CNT
                                    298 	.globl _X_WDCTL
                                    299 	.globl _X_MEMCTR
                                    300 	.globl _X_CLKCONCMD
                                    301 	.globl _X_U0GCR
                                    302 	.globl _X_U0UCR
                                    303 	.globl _X_T2MSEL
                                    304 	.globl _X_U0BAUD
                                    305 	.globl _X_U0DBUF
                                    306 	.globl _X_RFERRF
                                    307 	.globl _X_SLEEPCMD
                                    308 	.globl _X_RNDH
                                    309 	.globl _X_RNDL
                                    310 	.globl _X_ADCH
                                    311 	.globl _X_ADCL
                                    312 	.globl _X_ADCCON3
                                    313 	.globl _X_ADCCON2
                                    314 	.globl _X_ADCCON1
                                    315 	.globl _X_ENCCS
                                    316 	.globl _X_ENCDO
                                    317 	.globl _X_ENCDI
                                    318 	.globl _X_T1STAT
                                    319 	.globl _X_PMUX
                                    320 	.globl _X_STLOAD
                                    321 	.globl _X_P2IEN
                                    322 	.globl _X_P0IEN
                                    323 	.globl _X_T2IRQM
                                    324 	.globl _X_T2MOVF2
                                    325 	.globl _X_T2MOVF1
                                    326 	.globl _X_T2MOVF0
                                    327 	.globl _X_T2M1
                                    328 	.globl _X_T2M0
                                    329 	.globl _X_T2IRQF
                                    330 	.globl _X_P2
                                    331 	.globl _X_PSBANK
                                    332 	.globl _X_FMAP
                                    333 	.globl _X_CLKCONSTA
                                    334 	.globl _X_SLEEPSTA
                                    335 	.globl _X_T2EVTCFG
                                    336 	.globl _X_ST2
                                    337 	.globl _X_ST1
                                    338 	.globl _X_ST0
                                    339 	.globl _X_T2CTRL
                                    340 	.globl _X__XPAGE
                                    341 	.globl _X_MPAGE
                                    342 	.globl _X_RFIRQF1
                                    343 	.globl _X_P1
                                    344 	.globl _X_P0INP
                                    345 	.globl _X_P1IEN
                                    346 	.globl _X_PICTL
                                    347 	.globl _X_P2IFG
                                    348 	.globl _X_P1IFG
                                    349 	.globl _X_P0IFG
                                    350 	.globl _X_U0CSR
                                    351 	.globl _X_P0
                                    352 	.globl _USBF5
                                    353 	.globl _USBF4
                                    354 	.globl _USBF3
                                    355 	.globl _USBF2
                                    356 	.globl _USBF1
                                    357 	.globl _USBF0
                                    358 	.globl _USBCNTH
                                    359 	.globl _USBCNTL
                                    360 	.globl _USBCNT0
                                    361 	.globl _USBCSOH
                                    362 	.globl _USBCSOL
                                    363 	.globl _USBMAXO
                                    364 	.globl _USBCSIH
                                    365 	.globl _USBCSIL
                                    366 	.globl _USBCS0
                                    367 	.globl _USBMAXI
                                    368 	.globl _USBCTRL
                                    369 	.globl _USBINDEX
                                    370 	.globl _USBFRMH
                                    371 	.globl _USBFRML
                                    372 	.globl _USBCIE
                                    373 	.globl _USBOIE
                                    374 	.globl _USBIIE
                                    375 	.globl _USBCIF
                                    376 	.globl _USBOIF
                                    377 	.globl _USBIIF
                                    378 	.globl _USBPOW
                                    379 	.globl _USBADDR
                                    380 	.globl _CSPT
                                    381 	.globl _CSPZ
                                    382 	.globl _CSPY
                                    383 	.globl _CSPX
                                    384 	.globl _CSPSTAT
                                    385 	.globl _CSPCTRL
                                    386 	.globl _CSPPROG23
                                    387 	.globl _CSPPROG22
                                    388 	.globl _CSPPROG21
                                    389 	.globl _CSPPROG20
                                    390 	.globl _CSPPROG19
                                    391 	.globl _CSPPROG18
                                    392 	.globl _CSPPROG17
                                    393 	.globl _CSPPROG16
                                    394 	.globl _CSPPROG15
                                    395 	.globl _CSPPROG14
                                    396 	.globl _CSPPROG13
                                    397 	.globl _CSPPROG12
                                    398 	.globl _CSPPROG11
                                    399 	.globl _CSPPROG10
                                    400 	.globl _CSPPROG9
                                    401 	.globl _CSPPROG8
                                    402 	.globl _CSPPROG7
                                    403 	.globl _CSPPROG6
                                    404 	.globl _CSPPROG5
                                    405 	.globl _CSPPROG4
                                    406 	.globl _CSPPROG3
                                    407 	.globl _CSPPROG2
                                    408 	.globl _CSPPROG1
                                    409 	.globl _CSPPROG0
                                    410 	.globl _RFC_OBS_CTRL2
                                    411 	.globl _RFC_OBS_CTRL1
                                    412 	.globl _RFC_OBS_CTRL0
                                    413 	.globl _TXFILTCFG
                                    414 	.globl _PTEST1
                                    415 	.globl _PTEST0
                                    416 	.globl _ATEST
                                    417 	.globl _DACTEST2
                                    418 	.globl _DACTEST1
                                    419 	.globl _DACTEST0
                                    420 	.globl _MDMTEST1
                                    421 	.globl _MDMTEST0
                                    422 	.globl _ADCTEST2
                                    423 	.globl _ADCTEST1
                                    424 	.globl _ADCTEST0
                                    425 	.globl _AGCCTRL3
                                    426 	.globl _AGCCTRL2
                                    427 	.globl _AGCCTRL1
                                    428 	.globl _AGCCTRL0
                                    429 	.globl _FSCAL3
                                    430 	.globl _FSCAL2
                                    431 	.globl _FSCAL1
                                    432 	.globl _FSCAL0
                                    433 	.globl _FSCTRL
                                    434 	.globl _RXCTRL
                                    435 	.globl _FREQEST
                                    436 	.globl _MDMCTRL1
                                    437 	.globl _MDMCTRL0
                                    438 	.globl _RFRND
                                    439 	.globl _RFERRM
                                    440 	.globl _RFIRQM1
                                    441 	.globl _RFIRQM0
                                    442 	.globl _TXLAST_PTR
                                    443 	.globl _TXFIRST_PTR
                                    444 	.globl _RXP1_PTR
                                    445 	.globl _RXLAST_PTR
                                    446 	.globl _RXFIRST_PTR
                                    447 	.globl _TXFIFOCNT
                                    448 	.globl _RXFIFOCNT
                                    449 	.globl _RXFIRST
                                    450 	.globl _RSSISTAT
                                    451 	.globl _RSSI
                                    452 	.globl _CCACTRL1
                                    453 	.globl _CCACTRL0
                                    454 	.globl _FSMCTRL
                                    455 	.globl _FIFOPCTRL
                                    456 	.globl _FSMSTAT1
                                    457 	.globl _FSMSTAT0
                                    458 	.globl _TXCTRL
                                    459 	.globl _TXPOWER
                                    460 	.globl _FREQCTRL
                                    461 	.globl _FREQTUNE
                                    462 	.globl _RXMASKCLR
                                    463 	.globl _RXMASKSET
                                    464 	.globl _RXENABLE
                                    465 	.globl _FRMCTRL1
                                    466 	.globl _FRMCTRL0
                                    467 	.globl _SRCEXTEN2
                                    468 	.globl _SRCEXTEN1
                                    469 	.globl _SRCEXTEN0
                                    470 	.globl _SRCSHORTEN2
                                    471 	.globl _SRCSHORTEN1
                                    472 	.globl _SRCSHORTEN0
                                    473 	.globl _SRCMATCH
                                    474 	.globl _FRMFILT1
                                    475 	.globl _FRMFILT0
                                    476 	.globl _SHORT_ADDR1
                                    477 	.globl _SHORT_ADDR0
                                    478 	.globl _PAN_ID1
                                    479 	.globl _PAN_ID0
                                    480 	.globl _EXT_ADDR7
                                    481 	.globl _EXT_ADDR6
                                    482 	.globl _EXT_ADDR5
                                    483 	.globl _EXT_ADDR4
                                    484 	.globl _EXT_ADDR3
                                    485 	.globl _EXT_ADDR2
                                    486 	.globl _EXT_ADDR1
                                    487 	.globl _EXT_ADDR0
                                    488 	.globl _SRCSHORTPENDEN2
                                    489 	.globl _SRCSHORTPENDEN1
                                    490 	.globl _SRCSHORTPENDEN0
                                    491 	.globl _SRCEXTPENDEN2
                                    492 	.globl _SRCEXTPENDEN1
                                    493 	.globl _SRCEXTPENDEN0
                                    494 	.globl _SRCRESINDEX
                                    495 	.globl _SRCRESMASK2
                                    496 	.globl _SRCRESMASK1
                                    497 	.globl _SRCRESMASK0
                                    498 	.globl _SRC_ADDR_TABLE
                                    499 	.globl _TXFIFO
                                    500 	.globl _RXFIFO
                                    501 	.globl _RFCORE_RAM
                                    502 	.globl _CMPCTL
                                    503 	.globl _OPAMPS
                                    504 	.globl _OPAMPC
                                    505 	.globl _STCV2
                                    506 	.globl _STCV1
                                    507 	.globl _STCV0
                                    508 	.globl _STCS
                                    509 	.globl _STCC
                                    510 	.globl _T1CC4H
                                    511 	.globl _T1CC4L
                                    512 	.globl _T1CC3H
                                    513 	.globl _T1CC3L
                                    514 	.globl _XX_T1CC2H
                                    515 	.globl _XX_T1CC2L
                                    516 	.globl _XX_T1CC1H
                                    517 	.globl _XX_T1CC1L
                                    518 	.globl _XX_T1CC0H
                                    519 	.globl _XX_T1CC0L
                                    520 	.globl _T1CCTL4
                                    521 	.globl _T1CCTL3
                                    522 	.globl _XX_T1CCTL2
                                    523 	.globl _XX_T1CCTL1
                                    524 	.globl _XX_T1CCTL0
                                    525 	.globl _CLD
                                    526 	.globl _IRCTL
                                    527 	.globl _CHIPINFO1
                                    528 	.globl _CHIPINFO0
                                    529 	.globl _FWDATA
                                    530 	.globl _FADDRH
                                    531 	.globl _FADDRL
                                    532 	.globl _FCTL
                                    533 	.globl _IVCTRL
                                    534 	.globl _BATTMON
                                    535 	.globl _SRCRC
                                    536 	.globl _DBGDATA
                                    537 	.globl _TESTREG0
                                    538 	.globl _CHIPID
                                    539 	.globl _CHVER
                                    540 	.globl _OBSSEL5
                                    541 	.globl _OBSSEL4
                                    542 	.globl _OBSSEL3
                                    543 	.globl _OBSSEL2
                                    544 	.globl _OBSSEL1
                                    545 	.globl _OBSSEL0
                                    546 	.globl _I2CIO
                                    547 	.globl _I2CWC
                                    548 	.globl _I2CADDR
                                    549 	.globl _I2CDATA
                                    550 	.globl _I2CSTAT
                                    551 	.globl _I2CCFG
                                    552 	.globl _OPAMPMC
                                    553 	.globl _MONMUX
                                    554 ;--------------------------------------------------------
                                    555 ; special function registers
                                    556 ;--------------------------------------------------------
                                    557 	.area RSEG    (ABS,DATA)
      000000                        558 	.org 0x0000
                           000080   559 _P0	=	0x0080
                           000081   560 _SP	=	0x0081
                           000082   561 _DPL0	=	0x0082
                           000083   562 _DPH0	=	0x0083
                           000084   563 _DPL1	=	0x0084
                           000085   564 _DPH1	=	0x0085
                           000087   565 _PCON	=	0x0087
                           000088   566 _TCON	=	0x0088
                           000090   567 _P1	=	0x0090
                           000092   568 _DPS	=	0x0092
                           000098   569 _S0CON	=	0x0098
                           00009A   570 _IEN2	=	0x009a
                           00009B   571 _S1CON	=	0x009b
                           0000A0   572 _P2	=	0x00a0
                           0000A8   573 _IEN0	=	0x00a8
                           0000A9   574 _IP0	=	0x00a9
                           0000B8   575 _IEN1	=	0x00b8
                           0000B9   576 _IP1	=	0x00b9
                           0000C0   577 _IRCON	=	0x00c0
                           0000D0   578 _PSW	=	0x00d0
                           0000E0   579 _ACC	=	0x00e0
                           0000E8   580 _IRCON2	=	0x00e8
                           0000F0   581 _B	=	0x00f0
                           0000B4   582 _ADCCON1	=	0x00b4
                           0000B5   583 _ADCCON2	=	0x00b5
                           0000B6   584 _ADCCON3	=	0x00b6
                           0000BA   585 _ADCL	=	0x00ba
                           0000BB   586 _ADCH	=	0x00bb
                           0000BC   587 _RNDL	=	0x00bc
                           0000BD   588 _RNDH	=	0x00bd
                           0000B1   589 _ENCDI	=	0x00b1
                           0000B2   590 _ENCDO	=	0x00b2
                           0000B3   591 _ENCCS	=	0x00b3
                           0000D1   592 _DMAIRQ	=	0x00d1
                           0000D2   593 _DMA1CFGL	=	0x00d2
                           0000D3   594 _DMA1CFGH	=	0x00d3
                           0000D4   595 _DMA0CFGL	=	0x00d4
                           0000D5   596 _DMA0CFGH	=	0x00d5
                           0000D6   597 _DMAARM	=	0x00d6
                           0000D7   598 _DMAREQ	=	0x00d7
                           000089   599 _P0IFG	=	0x0089
                           00008A   600 _P1IFG	=	0x008a
                           00008B   601 _P2IFG	=	0x008b
                           00008C   602 _PICTL	=	0x008c
                           0000AB   603 _P0IEN	=	0x00ab
                           00008D   604 _P1IEN	=	0x008d
                           0000AC   605 _P2IEN	=	0x00ac
                           00008F   606 _P0INP	=	0x008f
                           0000F1   607 _PERCFG	=	0x00f1
                           0000F2   608 _APCFG	=	0x00f2
                           0000F3   609 _P0SEL	=	0x00f3
                           0000F4   610 _P1SEL	=	0x00f4
                           0000F5   611 _P2SEL	=	0x00f5
                           0000F6   612 _P1INP	=	0x00f6
                           0000F7   613 _P2INP	=	0x00f7
                           0000FD   614 _P0DIR	=	0x00fd
                           0000FE   615 _P1DIR	=	0x00fe
                           0000FF   616 _P2DIR	=	0x00ff
                           0000AE   617 _PMUX	=	0x00ae
                           000093   618 _MPAGE	=	0x0093
                           000093   619 __XPAGE	=	0x0093
                           0000C7   620 _MEMCTR	=	0x00c7
                           00009F   621 _FMAP	=	0x009f
                           00009F   622 _PSBANK	=	0x009f
                           000091   623 _RFIRQF1	=	0x0091
                           0000D9   624 _RFD	=	0x00d9
                           0000E1   625 _RFST	=	0x00e1
                           0000E9   626 _RFIRQF0	=	0x00e9
                           0000BF   627 _RFERRF	=	0x00bf
                           000095   628 _ST0	=	0x0095
                           000096   629 _ST1	=	0x0096
                           000097   630 _ST2	=	0x0097
                           0000AD   631 _STLOAD	=	0x00ad
                           0000BE   632 _SLEEPCMD	=	0x00be
                           00009D   633 _SLEEPSTA	=	0x009d
                           0000C6   634 _CLKCONCMD	=	0x00c6
                           00009E   635 _CLKCONSTA	=	0x009e
                           0000DA   636 _T1CC0L	=	0x00da
                           0000DB   637 _T1CC0H	=	0x00db
                           0000DC   638 _T1CC1L	=	0x00dc
                           0000DD   639 _T1CC1H	=	0x00dd
                           0000DE   640 _T1CC2L	=	0x00de
                           0000DF   641 _T1CC2H	=	0x00df
                           0000E2   642 _T1CNTL	=	0x00e2
                           0000E3   643 _T1CNTH	=	0x00e3
                           0000E4   644 _T1CTL	=	0x00e4
                           0000E5   645 _T1CCTL0	=	0x00e5
                           0000E6   646 _T1CCTL1	=	0x00e6
                           0000E7   647 _T1CCTL2	=	0x00e7
                           0000AF   648 _T1STAT	=	0x00af
                           000094   649 _T2CTRL	=	0x0094
                           00009C   650 _T2EVTCFG	=	0x009c
                           0000A1   651 _T2IRQF	=	0x00a1
                           0000A2   652 _T2M0	=	0x00a2
                           0000A3   653 _T2M1	=	0x00a3
                           0000A4   654 _T2MOVF0	=	0x00a4
                           0000A5   655 _T2MOVF1	=	0x00a5
                           0000A6   656 _T2MOVF2	=	0x00a6
                           0000A7   657 _T2IRQM	=	0x00a7
                           0000C3   658 _T2MSEL	=	0x00c3
                           0000CA   659 _T3CNT	=	0x00ca
                           0000CB   660 _T3CTL	=	0x00cb
                           0000CC   661 _T3CCTL0	=	0x00cc
                           0000CD   662 _T3CC0	=	0x00cd
                           0000CE   663 _T3CCTL1	=	0x00ce
                           0000CF   664 _T3CC1	=	0x00cf
                           0000EA   665 _T4CNT	=	0x00ea
                           0000EB   666 _T4CTL	=	0x00eb
                           0000EC   667 _T4CCTL0	=	0x00ec
                           0000ED   668 _T4CC0	=	0x00ed
                           0000EE   669 _T4CCTL1	=	0x00ee
                           0000EF   670 _T4CC1	=	0x00ef
                           0000D8   671 _TIMIF	=	0x00d8
                           000086   672 _U0CSR	=	0x0086
                           0000C1   673 _U0DBUF	=	0x00c1
                           0000C2   674 _U0BAUD	=	0x00c2
                           0000C4   675 _U0UCR	=	0x00c4
                           0000C5   676 _U0GCR	=	0x00c5
                           0000F8   677 _U1CSR	=	0x00f8
                           0000F9   678 _U1DBUF	=	0x00f9
                           0000FA   679 _U1BAUD	=	0x00fa
                           0000FB   680 _U1UCR	=	0x00fb
                           0000FC   681 _U1GCR	=	0x00fc
                           0000C9   682 _WDCTL	=	0x00c9
                                    683 ;--------------------------------------------------------
                                    684 ; special function bits
                                    685 ;--------------------------------------------------------
                                    686 	.area RSEG    (ABS,DATA)
      000000                        687 	.org 0x0000
                           000087   688 _P0_7	=	0x0087
                           000086   689 _P0_6	=	0x0086
                           000085   690 _P0_5	=	0x0085
                           000084   691 _P0_4	=	0x0084
                           000083   692 _P0_3	=	0x0083
                           000082   693 _P0_2	=	0x0082
                           000081   694 _P0_1	=	0x0081
                           000080   695 _P0_0	=	0x0080
                           00008F   696 _URX1IF	=	0x008f
                           00008D   697 _ADCIF	=	0x008d
                           00008B   698 _URX0IF	=	0x008b
                           00008A   699 _IT1	=	0x008a
                           000089   700 _RFERRIF	=	0x0089
                           000088   701 _IT0	=	0x0088
                           000097   702 _P1_7	=	0x0097
                           000096   703 _P1_6	=	0x0096
                           000095   704 _P1_5	=	0x0095
                           000094   705 _P1_4	=	0x0094
                           000093   706 _P1_3	=	0x0093
                           000092   707 _P1_2	=	0x0092
                           000091   708 _P1_1	=	0x0091
                           000090   709 _P1_0	=	0x0090
                           000099   710 _ENCIF_1	=	0x0099
                           000098   711 _ENCIF_0	=	0x0098
                           0000A7   712 _P2_7	=	0x00a7
                           0000A6   713 _P2_6	=	0x00a6
                           0000A5   714 _P2_5	=	0x00a5
                           0000A4   715 _P2_4	=	0x00a4
                           0000A3   716 _P2_3	=	0x00a3
                           0000A2   717 _P2_2	=	0x00a2
                           0000A1   718 _P2_1	=	0x00a1
                           0000A0   719 _P2_0	=	0x00a0
                           0000AF   720 _EA	=	0x00af
                           0000AD   721 _STIE	=	0x00ad
                           0000AC   722 _ENCIE	=	0x00ac
                           0000AB   723 _URX1IE	=	0x00ab
                           0000AA   724 _URX0IE	=	0x00aa
                           0000A9   725 _ADCIE	=	0x00a9
                           0000A8   726 _RFERRIE	=	0x00a8
                           0000BD   727 _P0IE	=	0x00bd
                           0000BC   728 _T4IE	=	0x00bc
                           0000BB   729 _T3IE	=	0x00bb
                           0000BA   730 _T2IE	=	0x00ba
                           0000B9   731 _T1IE	=	0x00b9
                           0000B8   732 _DMAIE	=	0x00b8
                           0000C7   733 _STIF	=	0x00c7
                           0000C5   734 _P0IF	=	0x00c5
                           0000C4   735 _T4IF	=	0x00c4
                           0000C3   736 _T3IF	=	0x00c3
                           0000C2   737 _T2IF	=	0x00c2
                           0000C1   738 _T1IF	=	0x00c1
                           0000C0   739 _DMAIF	=	0x00c0
                           0000D7   740 _CY	=	0x00d7
                           0000D6   741 _AC	=	0x00d6
                           0000D5   742 _F0	=	0x00d5
                           0000D4   743 _RS1	=	0x00d4
                           0000D3   744 _RS0	=	0x00d3
                           0000D2   745 _OV	=	0x00d2
                           0000D1   746 _F1	=	0x00d1
                           0000D0   747 _P	=	0x00d0
                           0000E7   748 _ACC_7	=	0x00e7
                           0000E6   749 _ACC_6	=	0x00e6
                           0000E5   750 _ACC_5	=	0x00e5
                           0000E4   751 _ACC_4	=	0x00e4
                           0000E3   752 _ACC_3	=	0x00e3
                           0000E2   753 _ACC_2	=	0x00e2
                           0000E1   754 _ACC_1	=	0x00e1
                           0000E0   755 _ACC_0	=	0x00e0
                           0000EC   756 _WDTIF	=	0x00ec
                           0000EB   757 _P1IF	=	0x00eb
                           0000EA   758 _UTX1IF	=	0x00ea
                           0000E9   759 _UTX0IF	=	0x00e9
                           0000E8   760 _P2IF	=	0x00e8
                           0000F7   761 _B_7	=	0x00f7
                           0000F6   762 _B_6	=	0x00f6
                           0000F5   763 _B_5	=	0x00f5
                           0000F4   764 _B_4	=	0x00f4
                           0000F3   765 _B_3	=	0x00f3
                           0000F2   766 _B_2	=	0x00f2
                           0000F1   767 _B_1	=	0x00f1
                           0000F0   768 _B_0	=	0x00f0
                           0000DE   769 _OVFIM	=	0x00de
                           0000DD   770 _T4CH1IF	=	0x00dd
                           0000DC   771 _T4CH0IF	=	0x00dc
                           0000DB   772 _T4OVFIF	=	0x00db
                           0000DA   773 _T3CH1IF	=	0x00da
                           0000D9   774 _T3CH0IF	=	0x00d9
                           0000D8   775 _T3OVFIF	=	0x00d8
                           0000FF   776 _MODE	=	0x00ff
                           0000FE   777 _RE	=	0x00fe
                           0000FD   778 _SLAVE	=	0x00fd
                           0000FC   779 _FE	=	0x00fc
                           0000FB   780 _ERR	=	0x00fb
                           0000FA   781 _RX_BYTE	=	0x00fa
                           0000F9   782 _TX_BYTE	=	0x00f9
                           0000F8   783 _ACTIVE	=	0x00f8
                                    784 ;--------------------------------------------------------
                                    785 ; overlayable register banks
                                    786 ;--------------------------------------------------------
                                    787 	.area REG_BANK_0	(REL,OVR,DATA)
      000000                        788 	.ds 8
                                    789 ;--------------------------------------------------------
                                    790 ; internal ram data
                                    791 ;--------------------------------------------------------
                                    792 	.area DSEG    (DATA)
                                    793 ;--------------------------------------------------------
                                    794 ; overlayable items in internal ram 
                                    795 ;--------------------------------------------------------
                                    796 ;--------------------------------------------------------
                                    797 ; indirectly addressable internal ram data
                                    798 ;--------------------------------------------------------
                                    799 	.area ISEG    (DATA)
                                    800 ;--------------------------------------------------------
                                    801 ; absolute internal ram data
                                    802 ;--------------------------------------------------------
                                    803 	.area IABS    (ABS,DATA)
                                    804 	.area IABS    (ABS,DATA)
                                    805 ;--------------------------------------------------------
                                    806 ; bit data
                                    807 ;--------------------------------------------------------
                                    808 	.area BSEG    (BIT)
                                    809 ;--------------------------------------------------------
                                    810 ; paged external ram data
                                    811 ;--------------------------------------------------------
                                    812 	.area PSEG    (PAG,XDATA)
                                    813 ;--------------------------------------------------------
                                    814 ; external ram data
                                    815 ;--------------------------------------------------------
                                    816 	.area XSEG    (XDATA)
                           0061A6   817 _MONMUX	=	0x61a6
                           0061A6   818 _OPAMPMC	=	0x61a6
                           006230   819 _I2CCFG	=	0x6230
                           006231   820 _I2CSTAT	=	0x6231
                           006232   821 _I2CDATA	=	0x6232
                           006233   822 _I2CADDR	=	0x6233
                           006234   823 _I2CWC	=	0x6234
                           006235   824 _I2CIO	=	0x6235
                           006243   825 _OBSSEL0	=	0x6243
                           006244   826 _OBSSEL1	=	0x6244
                           006245   827 _OBSSEL2	=	0x6245
                           006246   828 _OBSSEL3	=	0x6246
                           006247   829 _OBSSEL4	=	0x6247
                           006248   830 _OBSSEL5	=	0x6248
                           006249   831 _CHVER	=	0x6249
                           00624A   832 _CHIPID	=	0x624a
                           00624B   833 _TESTREG0	=	0x624b
                           006260   834 _DBGDATA	=	0x6260
                           006262   835 _SRCRC	=	0x6262
                           006264   836 _BATTMON	=	0x6264
                           006265   837 _IVCTRL	=	0x6265
                           006270   838 _FCTL	=	0x6270
                           006271   839 _FADDRL	=	0x6271
                           006272   840 _FADDRH	=	0x6272
                           006273   841 _FWDATA	=	0x6273
                           006276   842 _CHIPINFO0	=	0x6276
                           006277   843 _CHIPINFO1	=	0x6277
                           006281   844 _IRCTL	=	0x6281
                           006290   845 _CLD	=	0x6290
                           0062A0   846 _XX_T1CCTL0	=	0x62a0
                           0062A1   847 _XX_T1CCTL1	=	0x62a1
                           0062A2   848 _XX_T1CCTL2	=	0x62a2
                           0062A3   849 _T1CCTL3	=	0x62a3
                           0062A4   850 _T1CCTL4	=	0x62a4
                           0062A6   851 _XX_T1CC0L	=	0x62a6
                           0062A7   852 _XX_T1CC0H	=	0x62a7
                           0062A8   853 _XX_T1CC1L	=	0x62a8
                           0062A9   854 _XX_T1CC1H	=	0x62a9
                           0062AA   855 _XX_T1CC2L	=	0x62aa
                           0062AB   856 _XX_T1CC2H	=	0x62ab
                           0062AC   857 _T1CC3L	=	0x62ac
                           0062AD   858 _T1CC3H	=	0x62ad
                           0062AE   859 _T1CC4L	=	0x62ae
                           0062AF   860 _T1CC4H	=	0x62af
                           0062B0   861 _STCC	=	0x62b0
                           0062B1   862 _STCS	=	0x62b1
                           0062B2   863 _STCV0	=	0x62b2
                           0062B3   864 _STCV1	=	0x62b3
                           0062B4   865 _STCV2	=	0x62b4
                           0062C0   866 _OPAMPC	=	0x62c0
                           0062C1   867 _OPAMPS	=	0x62c1
                           0062D0   868 _CMPCTL	=	0x62d0
                           006000   869 _RFCORE_RAM	=	0x6000
                           006000   870 _RXFIFO	=	0x6000
                           006080   871 _TXFIFO	=	0x6080
                           006100   872 _SRC_ADDR_TABLE	=	0x6100
                           006160   873 _SRCRESMASK0	=	0x6160
                           006161   874 _SRCRESMASK1	=	0x6161
                           006162   875 _SRCRESMASK2	=	0x6162
                           006163   876 _SRCRESINDEX	=	0x6163
                           006164   877 _SRCEXTPENDEN0	=	0x6164
                           006165   878 _SRCEXTPENDEN1	=	0x6165
                           006166   879 _SRCEXTPENDEN2	=	0x6166
                           006167   880 _SRCSHORTPENDEN0	=	0x6167
                           006168   881 _SRCSHORTPENDEN1	=	0x6168
                           006169   882 _SRCSHORTPENDEN2	=	0x6169
                           00616A   883 _EXT_ADDR0	=	0x616a
                           00616B   884 _EXT_ADDR1	=	0x616b
                           00616C   885 _EXT_ADDR2	=	0x616c
                           00616D   886 _EXT_ADDR3	=	0x616d
                           00616E   887 _EXT_ADDR4	=	0x616e
                           00616F   888 _EXT_ADDR5	=	0x616f
                           006170   889 _EXT_ADDR6	=	0x6170
                           006171   890 _EXT_ADDR7	=	0x6171
                           006172   891 _PAN_ID0	=	0x6172
                           006173   892 _PAN_ID1	=	0x6173
                           006174   893 _SHORT_ADDR0	=	0x6174
                           006175   894 _SHORT_ADDR1	=	0x6175
                           006180   895 _FRMFILT0	=	0x6180
                           006181   896 _FRMFILT1	=	0x6181
                           006182   897 _SRCMATCH	=	0x6182
                           006183   898 _SRCSHORTEN0	=	0x6183
                           006184   899 _SRCSHORTEN1	=	0x6184
                           006185   900 _SRCSHORTEN2	=	0x6185
                           006186   901 _SRCEXTEN0	=	0x6186
                           006187   902 _SRCEXTEN1	=	0x6187
                           006188   903 _SRCEXTEN2	=	0x6188
                           006189   904 _FRMCTRL0	=	0x6189
                           00618A   905 _FRMCTRL1	=	0x618a
                           00618B   906 _RXENABLE	=	0x618b
                           00618C   907 _RXMASKSET	=	0x618c
                           00618D   908 _RXMASKCLR	=	0x618d
                           00618E   909 _FREQTUNE	=	0x618e
                           00618F   910 _FREQCTRL	=	0x618f
                           006190   911 _TXPOWER	=	0x6190
                           006191   912 _TXCTRL	=	0x6191
                           006192   913 _FSMSTAT0	=	0x6192
                           006193   914 _FSMSTAT1	=	0x6193
                           006194   915 _FIFOPCTRL	=	0x6194
                           006195   916 _FSMCTRL	=	0x6195
                           006196   917 _CCACTRL0	=	0x6196
                           006197   918 _CCACTRL1	=	0x6197
                           006198   919 _RSSI	=	0x6198
                           006199   920 _RSSISTAT	=	0x6199
                           00619A   921 _RXFIRST	=	0x619a
                           00619B   922 _RXFIFOCNT	=	0x619b
                           00619C   923 _TXFIFOCNT	=	0x619c
                           00619D   924 _RXFIRST_PTR	=	0x619d
                           00619E   925 _RXLAST_PTR	=	0x619e
                           00619F   926 _RXP1_PTR	=	0x619f
                           0061A1   927 _TXFIRST_PTR	=	0x61a1
                           0061A2   928 _TXLAST_PTR	=	0x61a2
                           0061A3   929 _RFIRQM0	=	0x61a3
                           0061A4   930 _RFIRQM1	=	0x61a4
                           0061A5   931 _RFERRM	=	0x61a5
                           0061A7   932 _RFRND	=	0x61a7
                           0061A8   933 _MDMCTRL0	=	0x61a8
                           0061A9   934 _MDMCTRL1	=	0x61a9
                           0061AA   935 _FREQEST	=	0x61aa
                           0061AB   936 _RXCTRL	=	0x61ab
                           0061AC   937 _FSCTRL	=	0x61ac
                           0061AD   938 _FSCAL0	=	0x61ad
                           0061AE   939 _FSCAL1	=	0x61ae
                           0061AF   940 _FSCAL2	=	0x61af
                           0061B0   941 _FSCAL3	=	0x61b0
                           0061B1   942 _AGCCTRL0	=	0x61b1
                           0061B2   943 _AGCCTRL1	=	0x61b2
                           0061B3   944 _AGCCTRL2	=	0x61b3
                           0061B4   945 _AGCCTRL3	=	0x61b4
                           0061B5   946 _ADCTEST0	=	0x61b5
                           0061B6   947 _ADCTEST1	=	0x61b6
                           0061B7   948 _ADCTEST2	=	0x61b7
                           0061B8   949 _MDMTEST0	=	0x61b8
                           0061B9   950 _MDMTEST1	=	0x61b9
                           0061BA   951 _DACTEST0	=	0x61ba
                           0061BB   952 _DACTEST1	=	0x61bb
                           0061BC   953 _DACTEST2	=	0x61bc
                           0061BD   954 _ATEST	=	0x61bd
                           0061BE   955 _PTEST0	=	0x61be
                           0061BF   956 _PTEST1	=	0x61bf
                           0061FA   957 _TXFILTCFG	=	0x61fa
                           0061EB   958 _RFC_OBS_CTRL0	=	0x61eb
                           0061EC   959 _RFC_OBS_CTRL1	=	0x61ec
                           0061ED   960 _RFC_OBS_CTRL2	=	0x61ed
                           0061C0   961 _CSPPROG0	=	0x61c0
                           0061C1   962 _CSPPROG1	=	0x61c1
                           0061C2   963 _CSPPROG2	=	0x61c2
                           0061C3   964 _CSPPROG3	=	0x61c3
                           0061C4   965 _CSPPROG4	=	0x61c4
                           0061C5   966 _CSPPROG5	=	0x61c5
                           0061C6   967 _CSPPROG6	=	0x61c6
                           0061C7   968 _CSPPROG7	=	0x61c7
                           0061C8   969 _CSPPROG8	=	0x61c8
                           0061C9   970 _CSPPROG9	=	0x61c9
                           0061CA   971 _CSPPROG10	=	0x61ca
                           0061CB   972 _CSPPROG11	=	0x61cb
                           0061CC   973 _CSPPROG12	=	0x61cc
                           0061CD   974 _CSPPROG13	=	0x61cd
                           0061CE   975 _CSPPROG14	=	0x61ce
                           0061CF   976 _CSPPROG15	=	0x61cf
                           0061D0   977 _CSPPROG16	=	0x61d0
                           0061D1   978 _CSPPROG17	=	0x61d1
                           0061D2   979 _CSPPROG18	=	0x61d2
                           0061D3   980 _CSPPROG19	=	0x61d3
                           0061D4   981 _CSPPROG20	=	0x61d4
                           0061D5   982 _CSPPROG21	=	0x61d5
                           0061D6   983 _CSPPROG22	=	0x61d6
                           0061D7   984 _CSPPROG23	=	0x61d7
                           0061E0   985 _CSPCTRL	=	0x61e0
                           0061E1   986 _CSPSTAT	=	0x61e1
                           0061E2   987 _CSPX	=	0x61e2
                           0061E3   988 _CSPY	=	0x61e3
                           0061E4   989 _CSPZ	=	0x61e4
                           0061E5   990 _CSPT	=	0x61e5
                           006200   991 _USBADDR	=	0x6200
                           006201   992 _USBPOW	=	0x6201
                           006202   993 _USBIIF	=	0x6202
                           006204   994 _USBOIF	=	0x6204
                           006206   995 _USBCIF	=	0x6206
                           006207   996 _USBIIE	=	0x6207
                           006209   997 _USBOIE	=	0x6209
                           00620B   998 _USBCIE	=	0x620b
                           00620C   999 _USBFRML	=	0x620c
                           00620D  1000 _USBFRMH	=	0x620d
                           00620E  1001 _USBINDEX	=	0x620e
                           00620F  1002 _USBCTRL	=	0x620f
                           006210  1003 _USBMAXI	=	0x6210
                           006211  1004 _USBCS0	=	0x6211
                           006211  1005 _USBCSIL	=	0x6211
                           006212  1006 _USBCSIH	=	0x6212
                           006213  1007 _USBMAXO	=	0x6213
                           006214  1008 _USBCSOL	=	0x6214
                           006215  1009 _USBCSOH	=	0x6215
                           006216  1010 _USBCNT0	=	0x6216
                           006216  1011 _USBCNTL	=	0x6216
                           006217  1012 _USBCNTH	=	0x6217
                           006220  1013 _USBF0	=	0x6220
                           006222  1014 _USBF1	=	0x6222
                           006224  1015 _USBF2	=	0x6224
                           006226  1016 _USBF3	=	0x6226
                           006228  1017 _USBF4	=	0x6228
                           00622A  1018 _USBF5	=	0x622a
                           007080  1019 _X_P0	=	0x7080
                           007086  1020 _X_U0CSR	=	0x7086
                           007089  1021 _X_P0IFG	=	0x7089
                           00708A  1022 _X_P1IFG	=	0x708a
                           00708B  1023 _X_P2IFG	=	0x708b
                           00708C  1024 _X_PICTL	=	0x708c
                           00708D  1025 _X_P1IEN	=	0x708d
                           00708F  1026 _X_P0INP	=	0x708f
                           007090  1027 _X_P1	=	0x7090
                           007091  1028 _X_RFIRQF1	=	0x7091
                           007093  1029 _X_MPAGE	=	0x7093
                           007093  1030 _X__XPAGE	=	0x7093
                           007094  1031 _X_T2CTRL	=	0x7094
                           007095  1032 _X_ST0	=	0x7095
                           007096  1033 _X_ST1	=	0x7096
                           007097  1034 _X_ST2	=	0x7097
                           00709C  1035 _X_T2EVTCFG	=	0x709c
                           00709D  1036 _X_SLEEPSTA	=	0x709d
                           00709E  1037 _X_CLKCONSTA	=	0x709e
                           00709F  1038 _X_FMAP	=	0x709f
                           00709F  1039 _X_PSBANK	=	0x709f
                           0070A0  1040 _X_P2	=	0x70a0
                           0070A1  1041 _X_T2IRQF	=	0x70a1
                           0070A2  1042 _X_T2M0	=	0x70a2
                           0070A3  1043 _X_T2M1	=	0x70a3
                           0070A4  1044 _X_T2MOVF0	=	0x70a4
                           0070A5  1045 _X_T2MOVF1	=	0x70a5
                           0070A6  1046 _X_T2MOVF2	=	0x70a6
                           0070A7  1047 _X_T2IRQM	=	0x70a7
                           0070AB  1048 _X_P0IEN	=	0x70ab
                           0070AC  1049 _X_P2IEN	=	0x70ac
                           0070AD  1050 _X_STLOAD	=	0x70ad
                           0070AE  1051 _X_PMUX	=	0x70ae
                           0070AF  1052 _X_T1STAT	=	0x70af
                           0070B1  1053 _X_ENCDI	=	0x70b1
                           0070B2  1054 _X_ENCDO	=	0x70b2
                           0070B3  1055 _X_ENCCS	=	0x70b3
                           0070B4  1056 _X_ADCCON1	=	0x70b4
                           0070B5  1057 _X_ADCCON2	=	0x70b5
                           0070B6  1058 _X_ADCCON3	=	0x70b6
                           0070BA  1059 _X_ADCL	=	0x70ba
                           0070BB  1060 _X_ADCH	=	0x70bb
                           0070BC  1061 _X_RNDL	=	0x70bc
                           0070BD  1062 _X_RNDH	=	0x70bd
                           0070BE  1063 _X_SLEEPCMD	=	0x70be
                           0070BF  1064 _X_RFERRF	=	0x70bf
                           0070C1  1065 _X_U0DBUF	=	0x70c1
                           0070C2  1066 _X_U0BAUD	=	0x70c2
                           0070C3  1067 _X_T2MSEL	=	0x70c3
                           0070C4  1068 _X_U0UCR	=	0x70c4
                           0070C5  1069 _X_U0GCR	=	0x70c5
                           0070C6  1070 _X_CLKCONCMD	=	0x70c6
                           0070C7  1071 _X_MEMCTR	=	0x70c7
                           0070C9  1072 _X_WDCTL	=	0x70c9
                           0070CA  1073 _X_T3CNT	=	0x70ca
                           0070CB  1074 _X_T3CTL	=	0x70cb
                           0070CC  1075 _X_T3CCTL0	=	0x70cc
                           0070CD  1076 _X_T3CC0	=	0x70cd
                           0070CE  1077 _X_T3CCTL1	=	0x70ce
                           0070CF  1078 _X_T3CC1	=	0x70cf
                           0070D1  1079 _X_DMAIRQ	=	0x70d1
                           0070D2  1080 _X_DMA1CFGL	=	0x70d2
                           0070D3  1081 _X_DMA1CFGH	=	0x70d3
                           0070D4  1082 _X_DMA0CFGL	=	0x70d4
                           0070D5  1083 _X_DMA0CFGH	=	0x70d5
                           0070D6  1084 _X_DMAARM	=	0x70d6
                           0070D7  1085 _X_DMAREQ	=	0x70d7
                           0070D8  1086 _X_TIMIF	=	0x70d8
                           0070D9  1087 _X_RFD	=	0x70d9
                           0070DA  1088 _X_T1CC0L	=	0x70da
                           0070DB  1089 _X_T1CC0H	=	0x70db
                           0070DC  1090 _X_T1CC1L	=	0x70dc
                           0070DD  1091 _X_T1CC1H	=	0x70dd
                           0070DE  1092 _X_T1CC2L	=	0x70de
                           0070DF  1093 _X_T1CC2H	=	0x70df
                           0070E1  1094 _X_RFST	=	0x70e1
                           0070E2  1095 _X_T1CNTL	=	0x70e2
                           0070E3  1096 _X_T1CNTH	=	0x70e3
                           0070E4  1097 _X_T1CTL	=	0x70e4
                           0070E5  1098 _X_T1CCTL0	=	0x70e5
                           0070E6  1099 _X_T1CCTL1	=	0x70e6
                           0070E7  1100 _X_T1CCTL2	=	0x70e7
                           0070E9  1101 _X_RFIRQF0	=	0x70e9
                           0070EA  1102 _X_T4CNT	=	0x70ea
                           0070EB  1103 _X_T4CTL	=	0x70eb
                           0070EC  1104 _X_T4CCTL0	=	0x70ec
                           0070ED  1105 _X_T4CC0	=	0x70ed
                           0070EE  1106 _X_T4CCTL1	=	0x70ee
                           0070EF  1107 _X_T4CC1	=	0x70ef
                           0070F1  1108 _X_PERCFG	=	0x70f1
                           0070F2  1109 _X_APCFG	=	0x70f2
                           0070F3  1110 _X_P0SEL	=	0x70f3
                           0070F4  1111 _X_P1SEL	=	0x70f4
                           0070F5  1112 _X_P2SEL	=	0x70f5
                           0070F6  1113 _X_P1INP	=	0x70f6
                           0070F7  1114 _X_P2INP	=	0x70f7
                           0070F8  1115 _X_U1CSR	=	0x70f8
                           0070F9  1116 _X_U1DBUF	=	0x70f9
                           0070FA  1117 _X_U1BAUD	=	0x70fa
                           0070FB  1118 _X_U1UCR	=	0x70fb
                           0070FC  1119 _X_U1GCR	=	0x70fc
                           0070FD  1120 _X_P0DIR	=	0x70fd
                           0070FE  1121 _X_P1DIR	=	0x70fe
                           0070FF  1122 _X_P2DIR	=	0x70ff
                           007800  1123 _X_INFOPAGE	=	0x7800
                           00780C  1124 _X_IEEE_ADDR	=	0x780c
                                   1125 ;--------------------------------------------------------
                                   1126 ; absolute external ram data
                                   1127 ;--------------------------------------------------------
                                   1128 	.area XABS    (ABS,XDATA)
                                   1129 ;--------------------------------------------------------
                                   1130 ; external initialized ram data
                                   1131 ;--------------------------------------------------------
                                   1132 	.area XISEG   (XDATA)
                                   1133 	.area HOME    (CODE)
                                   1134 	.area GSINIT0 (CODE)
                                   1135 	.area GSINIT1 (CODE)
                                   1136 	.area GSINIT2 (CODE)
                                   1137 	.area GSINIT3 (CODE)
                                   1138 	.area GSINIT4 (CODE)
                                   1139 	.area GSINIT5 (CODE)
                                   1140 	.area GSINIT  (CODE)
                                   1141 	.area GSFINAL (CODE)
                                   1142 	.area CSEG    (CODE)
                                   1143 ;--------------------------------------------------------
                                   1144 ; global & static initialisations
                                   1145 ;--------------------------------------------------------
                                   1146 	.area HOME    (CODE)
                                   1147 	.area GSINIT  (CODE)
                                   1148 	.area GSFINAL (CODE)
                                   1149 	.area GSINIT  (CODE)
                                   1150 ;--------------------------------------------------------
                                   1151 ; Home
                                   1152 ;--------------------------------------------------------
                                   1153 	.area HOME    (CODE)
                                   1154 	.area HOME    (CODE)
                                   1155 ;--------------------------------------------------------
                                   1156 ; code
                                   1157 ;--------------------------------------------------------
                                   1158 	.area BANK1   (CODE)
                                   1159 ;------------------------------------------------------------
                                   1160 ;Allocation info for local variables in function 'send_one_packet'
                                   1161 ;------------------------------------------------------------
                                   1162 ;ptr                       Allocated to stack - sp -16
                                   1163 ;sent                      Allocated to registers r5 r6 r7 
                                   1164 ;ret                       Allocated to registers r3 r4 
                                   1165 ;last_sent_ok              Allocated to stack - sp -5
                                   1166 ;is_broadcast              Allocated to registers r4 r3 
                                   1167 ;dsn                       Allocated to stack - sp -3
                                   1168 ;wt                        Allocated to registers r2 r7 
                                   1169 ;len                       Allocated to registers r6 r7 
                                   1170 ;ackbuf                    Allocated to stack - sp -2
                                   1171 ;sloc0                     Allocated to stack - sp -10
                                   1172 ;sloc1                     Allocated to stack - sp -7
                                   1173 ;------------------------------------------------------------
                                   1174 ;	/opt/contiki/core/net/mac/nullrdc.c:113: send_one_packet(mac_callback_t sent, void *ptr)
                                   1175 ;	-----------------------------------------
                                   1176 ;	 function send_one_packet
                                   1177 ;	-----------------------------------------
      000000                       1178 _send_one_packet:
                           000007  1179 	ar7 = 0x07
                           000006  1180 	ar6 = 0x06
                           000005  1181 	ar5 = 0x05
                           000004  1182 	ar4 = 0x04
                           000003  1183 	ar3 = 0x03
                           000002  1184 	ar2 = 0x02
                           000001  1185 	ar1 = 0x01
                           000000  1186 	ar0 = 0x00
      000000 E5 81            [12] 1187 	mov	a,sp
      000002 24 0B            [12] 1188 	add	a,#0x0B
      000004 F5 81            [12] 1189 	mov	sp,a
      000006 AD 82            [24] 1190 	mov	r5,dpl
      000008 AE 83            [24] 1191 	mov	r6,dph
      00000A AF F0            [24] 1192 	mov	r7,b
                                   1193 ;	/opt/contiki/core/net/mac/nullrdc.c:116: int last_sent_ok = 0;
      00000C E5 81            [12] 1194 	mov	a,sp
      00000E 24 FB            [12] 1195 	add	a,#0xfb
      000010 F8               [12] 1196 	mov	r0,a
      000011 E4               [12] 1197 	clr	a
      000012 F6               [12] 1198 	mov	@r0,a
      000013 08               [12] 1199 	inc	r0
      000014 F6               [12] 1200 	mov	@r0,a
                                   1201 ;	/opt/contiki/core/net/mac/nullrdc.c:118: packetbuf_set_addr(PACKETBUF_ADDR_SENDER, &linkaddr_node_addr);
      000015 C0 07            [24] 1202 	push	ar7
      000017 C0 06            [24] 1203 	push	ar6
      000019 C0 05            [24] 1204 	push	ar5
      00001B 74r00            [12] 1205 	mov	a,#_linkaddr_node_addr
      00001D C0 E0            [24] 1206 	push	acc
      00001F 74s00            [12] 1207 	mov	a,#(_linkaddr_node_addr >> 8)
      000021 C0 E0            [24] 1208 	push	acc
      000023 E4               [12] 1209 	clr	a
      000024 C0 E0            [24] 1210 	push	acc
      000026 75 82 1A         [24] 1211 	mov	dpl,#0x1A
      000029 78r00            [12] 1212 	mov	r0,#_packetbuf_set_addr
      00002B 79s00            [12] 1213 	mov	r1,#(_packetbuf_set_addr >> 8)
      00002D 7As00            [12] 1214 	mov	r2,#(_packetbuf_set_addr >> 16)
      00002F 12r00r00         [24] 1215 	lcall	__sdcc_banked_call
      000032 15 81            [12] 1216 	dec	sp
      000034 15 81            [12] 1217 	dec	sp
      000036 15 81            [12] 1218 	dec	sp
                                   1219 ;	/opt/contiki/core/net/mac/nullrdc.c:120: packetbuf_set_attr(PACKETBUF_ATTR_MAC_ACK, 1);
      000038 74 01            [12] 1220 	mov	a,#0x01
      00003A C0 E0            [24] 1221 	push	acc
      00003C E4               [12] 1222 	clr	a
      00003D C0 E0            [24] 1223 	push	acc
      00003F 75 82 0B         [24] 1224 	mov	dpl,#0x0B
      000042 78r00            [12] 1225 	mov	r0,#_packetbuf_set_attr
      000044 79s00            [12] 1226 	mov	r1,#(_packetbuf_set_attr >> 8)
      000046 7As00            [12] 1227 	mov	r2,#(_packetbuf_set_attr >> 16)
      000048 12r00r00         [24] 1228 	lcall	__sdcc_banked_call
      00004B 15 81            [12] 1229 	dec	sp
      00004D 15 81            [12] 1230 	dec	sp
                                   1231 ;	/opt/contiki/core/net/mac/nullrdc.c:123: if(NETSTACK_FRAMER.create() < 0) {
      00004F 90r00r03         [24] 1232 	mov	dptr,#(_framer_802154 + 0x0003)
      000052 E4               [12] 1233 	clr	a
      000053 93               [24] 1234 	movc	a,@a+dptr
      000054 FA               [12] 1235 	mov	r2,a
      000055 A3               [24] 1236 	inc	dptr
      000056 E4               [12] 1237 	clr	a
      000057 93               [24] 1238 	movc	a,@a+dptr
      000058 FB               [12] 1239 	mov	r3,a
      000059 A3               [24] 1240 	inc	dptr
      00005A E4               [12] 1241 	clr	a
      00005B 93               [24] 1242 	movc	a,@a+dptr
      00005C FC               [12] 1243 	mov	r4,a
      00005D C0 04            [24] 1244 	push	ar4
      00005F C0 02            [24] 1245 	push	ar2
      000061 C0 03            [24] 1246 	push	ar3
      000063 C0 04            [24] 1247 	push	ar4
      000065 D0 02            [24] 1248 	pop	ar2
      000067 D0 01            [24] 1249 	pop	ar1
      000069 D0 00            [24] 1250 	pop	ar0
      00006B 12r00r00         [24] 1251 	lcall	__sdcc_banked_call
      00006E AA 82            [24] 1252 	mov	r2,dpl
      000070 AB 83            [24] 1253 	mov	r3,dph
      000072 D0 04            [24] 1254 	pop	ar4
      000074 D0 05            [24] 1255 	pop	ar5
      000076 D0 06            [24] 1256 	pop	ar6
      000078 D0 07            [24] 1257 	pop	ar7
      00007A EB               [12] 1258 	mov	a,r3
      00007B 30 E7 07         [24] 1259 	jnb	acc.7,00134$
                                   1260 ;	/opt/contiki/core/net/mac/nullrdc.c:126: ret = MAC_TX_ERR_FATAL;
      00007E 7B 05            [12] 1261 	mov	r3,#0x05
      000080 7C 00            [12] 1262 	mov	r4,#0x00
      000082 02r05r71         [24] 1263 	ljmp	00135$
      000085                       1264 00134$:
                                   1265 ;	/opt/contiki/core/net/mac/nullrdc.c:131: dsn = ((uint8_t *)packetbuf_hdrptr())[2] & 0xff;
      000085 C0 05            [24] 1266 	push	ar5
      000087 C0 06            [24] 1267 	push	ar6
      000089 C0 07            [24] 1268 	push	ar7
      00008B C0 05            [24] 1269 	push	ar5
      00008D 78r00            [12] 1270 	mov	r0,#_packetbuf_hdrptr
      00008F 79s00            [12] 1271 	mov	r1,#(_packetbuf_hdrptr >> 8)
      000091 7As00            [12] 1272 	mov	r2,#(_packetbuf_hdrptr >> 16)
      000093 12r00r00         [24] 1273 	lcall	__sdcc_banked_call
      000096 AA 82            [24] 1274 	mov	r2,dpl
      000098 AE 83            [24] 1275 	mov	r6,dph
      00009A AF F0            [24] 1276 	mov	r7,b
      00009C D0 05            [24] 1277 	pop	ar5
      00009E 74 02            [12] 1278 	mov	a,#0x02
      0000A0 2A               [12] 1279 	add	a,r2
      0000A1 FA               [12] 1280 	mov	r2,a
      0000A2 E4               [12] 1281 	clr	a
      0000A3 3E               [12] 1282 	addc	a,r6
      0000A4 FE               [12] 1283 	mov	r6,a
      0000A5 8A 82            [24] 1284 	mov	dpl,r2
      0000A7 8E 83            [24] 1285 	mov	dph,r6
      0000A9 8F F0            [24] 1286 	mov	b,r7
      0000AB E5 81            [12] 1287 	mov	a,sp
      0000AD 24 FA            [12] 1288 	add	a,#0xfa
      0000AF F8               [12] 1289 	mov	r0,a
      0000B0 12r00r00         [24] 1290 	lcall	__gptrget
      0000B3 F6               [12] 1291 	mov	@r0,a
                                   1292 ;	/opt/contiki/core/net/mac/nullrdc.c:133: NETSTACK_RADIO.prepare(packetbuf_hdrptr(), packetbuf_totlen());
      0000B4 90r00r03         [24] 1293 	mov	dptr,#(_cc2530_rf_driver + 0x0003)
      0000B7 E4               [12] 1294 	clr	a
      0000B8 93               [24] 1295 	movc	a,@a+dptr
      0000B9 FC               [12] 1296 	mov	r4,a
      0000BA A3               [24] 1297 	inc	dptr
      0000BB E4               [12] 1298 	clr	a
      0000BC 93               [24] 1299 	movc	a,@a+dptr
      0000BD FB               [12] 1300 	mov	r3,a
      0000BE A3               [24] 1301 	inc	dptr
      0000BF E4               [12] 1302 	clr	a
      0000C0 93               [24] 1303 	movc	a,@a+dptr
      0000C1 FA               [12] 1304 	mov	r2,a
      0000C2 C0 07            [24] 1305 	push	ar7
      0000C4 C0 06            [24] 1306 	push	ar6
      0000C6 C0 05            [24] 1307 	push	ar5
      0000C8 C0 04            [24] 1308 	push	ar4
      0000CA C0 03            [24] 1309 	push	ar3
      0000CC C0 02            [24] 1310 	push	ar2
      0000CE 78r00            [12] 1311 	mov	r0,#_packetbuf_totlen
      0000D0 79s00            [12] 1312 	mov	r1,#(_packetbuf_totlen >> 8)
      0000D2 7As00            [12] 1313 	mov	r2,#(_packetbuf_totlen >> 16)
      0000D4 12r00r00         [24] 1314 	lcall	__sdcc_banked_call
      0000D7 C8               [12] 1315 	xch	a,r0
      0000D8 E5 81            [12] 1316 	mov	a,sp
      0000DA 24 F0            [12] 1317 	add	a,#0xf0
      0000DC C8               [12] 1318 	xch	a,r0
      0000DD A6 82            [24] 1319 	mov	@r0,dpl
      0000DF 08               [12] 1320 	inc	r0
      0000E0 A6 83            [24] 1321 	mov	@r0,dph
      0000E2 D0 02            [24] 1322 	pop	ar2
      0000E4 D0 03            [24] 1323 	pop	ar3
      0000E6 D0 04            [24] 1324 	pop	ar4
      0000E8 D0 05            [24] 1325 	pop	ar5
      0000EA D0 06            [24] 1326 	pop	ar6
      0000EC D0 07            [24] 1327 	pop	ar7
      0000EE C0 04            [24] 1328 	push	ar4
      0000F0 C0 03            [24] 1329 	push	ar3
      0000F2 C0 02            [24] 1330 	push	ar2
      0000F4 78r00            [12] 1331 	mov	r0,#_packetbuf_hdrptr
      0000F6 79s00            [12] 1332 	mov	r1,#(_packetbuf_hdrptr >> 8)
      0000F8 7As00            [12] 1333 	mov	r2,#(_packetbuf_hdrptr >> 16)
      0000FA 12r00r00         [24] 1334 	lcall	__sdcc_banked_call
      0000FD AD 82            [24] 1335 	mov	r5,dpl
      0000FF AE 83            [24] 1336 	mov	r6,dph
      000101 AF F0            [24] 1337 	mov	r7,b
      000103 D0 02            [24] 1338 	pop	ar2
      000105 D0 03            [24] 1339 	pop	ar3
      000107 D0 04            [24] 1340 	pop	ar4
      000109 C0 07            [24] 1341 	push	ar7
      00010B C0 06            [24] 1342 	push	ar6
      00010D C0 05            [24] 1343 	push	ar5
      00010F C0 04            [24] 1344 	push	ar4
      000111 C0 03            [24] 1345 	push	ar3
      000113 C0 02            [24] 1346 	push	ar2
      000115 E5 81            [12] 1347 	mov	a,sp
      000117 24 F0            [12] 1348 	add	a,#0xf0
      000119 F8               [12] 1349 	mov	r0,a
      00011A E6               [12] 1350 	mov	a,@r0
      00011B C0 E0            [24] 1351 	push	acc
      00011D 08               [12] 1352 	inc	r0
      00011E E6               [12] 1353 	mov	a,@r0
      00011F C0 E0            [24] 1354 	push	acc
      000121 C0 04            [24] 1355 	push	ar4
      000123 C0 03            [24] 1356 	push	ar3
      000125 C0 02            [24] 1357 	push	ar2
      000127 8D 82            [24] 1358 	mov	dpl,r5
      000129 8E 83            [24] 1359 	mov	dph,r6
      00012B 8F F0            [24] 1360 	mov	b,r7
      00012D D0 02            [24] 1361 	pop	ar2
      00012F D0 01            [24] 1362 	pop	ar1
      000131 D0 00            [24] 1363 	pop	ar0
      000133 12r00r00         [24] 1364 	lcall	__sdcc_banked_call
      000136 15 81            [12] 1365 	dec	sp
      000138 15 81            [12] 1366 	dec	sp
      00013A D0 02            [24] 1367 	pop	ar2
      00013C D0 03            [24] 1368 	pop	ar3
      00013E D0 04            [24] 1369 	pop	ar4
      000140 D0 05            [24] 1370 	pop	ar5
      000142 D0 06            [24] 1371 	pop	ar6
      000144 D0 07            [24] 1372 	pop	ar7
                                   1373 ;	/opt/contiki/core/net/mac/nullrdc.c:135: is_broadcast = packetbuf_holds_broadcast();
      000146 C0 05            [24] 1374 	push	ar5
      000148 78r00            [12] 1375 	mov	r0,#_packetbuf_holds_broadcast
      00014A 79s00            [12] 1376 	mov	r1,#(_packetbuf_holds_broadcast >> 8)
      00014C 7As00            [12] 1377 	mov	r2,#(_packetbuf_holds_broadcast >> 16)
      00014E 12r00r00         [24] 1378 	lcall	__sdcc_banked_call
      000151 AE 82            [24] 1379 	mov	r6,dpl
      000153 AF 83            [24] 1380 	mov	r7,dph
      000155 D0 05            [24] 1381 	pop	ar5
      000157 8E 04            [24] 1382 	mov	ar4,r6
      000159 8F 03            [24] 1383 	mov	ar3,r7
                                   1384 ;	/opt/contiki/core/net/mac/nullrdc.c:137: if(NETSTACK_RADIO.receiving_packet() ||
      00015B 90r00r12         [24] 1385 	mov	dptr,#(_cc2530_rf_driver + 0x0012)
      00015E E4               [12] 1386 	clr	a
      00015F 93               [24] 1387 	movc	a,@a+dptr
      000160 FD               [12] 1388 	mov	r5,a
      000161 A3               [24] 1389 	inc	dptr
      000162 E4               [12] 1390 	clr	a
      000163 93               [24] 1391 	movc	a,@a+dptr
      000164 FE               [12] 1392 	mov	r6,a
      000165 A3               [24] 1393 	inc	dptr
      000166 E4               [12] 1394 	clr	a
      000167 93               [24] 1395 	movc	a,@a+dptr
      000168 FF               [12] 1396 	mov	r7,a
      000169 C0 07            [24] 1397 	push	ar7
      00016B C0 04            [24] 1398 	push	ar4
      00016D C0 03            [24] 1399 	push	ar3
      00016F C0 05            [24] 1400 	push	ar5
      000171 C0 06            [24] 1401 	push	ar6
      000173 C0 07            [24] 1402 	push	ar7
      000175 D0 02            [24] 1403 	pop	ar2
      000177 D0 01            [24] 1404 	pop	ar1
      000179 D0 00            [24] 1405 	pop	ar0
      00017B 12r00r00         [24] 1406 	lcall	__sdcc_banked_call
      00017E AD 82            [24] 1407 	mov	r5,dpl
      000180 AE 83            [24] 1408 	mov	r6,dph
      000182 D0 03            [24] 1409 	pop	ar3
      000184 D0 04            [24] 1410 	pop	ar4
      000186 D0 07            [24] 1411 	pop	ar7
      000188 ED               [12] 1412 	mov	a,r5
      000189 4E               [12] 1413 	orl	a,r6
      00018A D0 07            [24] 1414 	pop	ar7
      00018C D0 06            [24] 1415 	pop	ar6
      00018E D0 05            [24] 1416 	pop	ar5
      000190 70 45            [24] 1417 	jnz	00128$
                                   1418 ;	/opt/contiki/core/net/mac/nullrdc.c:138: (!is_broadcast && NETSTACK_RADIO.pending_packet())) {
      000192 EC               [12] 1419 	mov	a,r4
      000193 4B               [12] 1420 	orl	a,r3
      000194 70 48            [24] 1421 	jnz	00129$
      000196 C0 05            [24] 1422 	push	ar5
      000198 C0 06            [24] 1423 	push	ar6
      00019A C0 07            [24] 1424 	push	ar7
      00019C 90r00r15         [24] 1425 	mov	dptr,#(_cc2530_rf_driver + 0x0015)
      00019F E4               [12] 1426 	clr	a
      0001A0 93               [24] 1427 	movc	a,@a+dptr
      0001A1 FA               [12] 1428 	mov	r2,a
      0001A2 A3               [24] 1429 	inc	dptr
      0001A3 E4               [12] 1430 	clr	a
      0001A4 93               [24] 1431 	movc	a,@a+dptr
      0001A5 FE               [12] 1432 	mov	r6,a
      0001A6 A3               [24] 1433 	inc	dptr
      0001A7 E4               [12] 1434 	clr	a
      0001A8 93               [24] 1435 	movc	a,@a+dptr
      0001A9 FF               [12] 1436 	mov	r7,a
      0001AA C0 07            [24] 1437 	push	ar7
      0001AC C0 05            [24] 1438 	push	ar5
      0001AE C0 04            [24] 1439 	push	ar4
      0001B0 C0 03            [24] 1440 	push	ar3
      0001B2 C0 02            [24] 1441 	push	ar2
      0001B4 C0 06            [24] 1442 	push	ar6
      0001B6 C0 07            [24] 1443 	push	ar7
      0001B8 D0 02            [24] 1444 	pop	ar2
      0001BA D0 01            [24] 1445 	pop	ar1
      0001BC D0 00            [24] 1446 	pop	ar0
      0001BE 12r00r00         [24] 1447 	lcall	__sdcc_banked_call
      0001C1 AA 82            [24] 1448 	mov	r2,dpl
      0001C3 AE 83            [24] 1449 	mov	r6,dph
      0001C5 D0 03            [24] 1450 	pop	ar3
      0001C7 D0 04            [24] 1451 	pop	ar4
      0001C9 D0 05            [24] 1452 	pop	ar5
      0001CB D0 07            [24] 1453 	pop	ar7
      0001CD EA               [12] 1454 	mov	a,r2
      0001CE 4E               [12] 1455 	orl	a,r6
      0001CF D0 07            [24] 1456 	pop	ar7
      0001D1 D0 06            [24] 1457 	pop	ar6
      0001D3 D0 05            [24] 1458 	pop	ar5
      0001D5 60 07            [24] 1459 	jz	00129$
      0001D7                       1460 00128$:
                                   1461 ;	/opt/contiki/core/net/mac/nullrdc.c:143: ret = MAC_TX_COLLISION;
      0001D7 7B 01            [12] 1462 	mov	r3,#0x01
      0001D9 7C 00            [12] 1463 	mov	r4,#0x00
      0001DB 02r05r71         [24] 1464 	ljmp	00135$
      0001DE                       1465 00129$:
                                   1466 ;	/opt/contiki/core/net/mac/nullrdc.c:145: if(!is_broadcast) {
      0001DE EC               [12] 1467 	mov	a,r4
      0001DF 4B               [12] 1468 	orl	a,r3
      0001E0 70 35            [24] 1469 	jnz	00102$
                                   1470 ;	/opt/contiki/core/net/mac/nullrdc.c:146: RIMESTATS_ADD(reliabletx);
      0001E2 C0 05            [24] 1471 	push	ar5
      0001E4 C0 06            [24] 1472 	push	ar6
      0001E6 C0 07            [24] 1473 	push	ar7
      0001E8 90r00r08         [24] 1474 	mov	dptr,#(_rimestats + 0x0008)
      0001EB E0               [24] 1475 	movx	a,@dptr
      0001EC FA               [12] 1476 	mov	r2,a
      0001ED A3               [24] 1477 	inc	dptr
      0001EE E0               [24] 1478 	movx	a,@dptr
      0001EF FD               [12] 1479 	mov	r5,a
      0001F0 A3               [24] 1480 	inc	dptr
      0001F1 E0               [24] 1481 	movx	a,@dptr
      0001F2 FE               [12] 1482 	mov	r6,a
      0001F3 A3               [24] 1483 	inc	dptr
      0001F4 E0               [24] 1484 	movx	a,@dptr
      0001F5 FF               [12] 1485 	mov	r7,a
      0001F6 0A               [12] 1486 	inc	r2
      0001F7 BA 00 09         [24] 1487 	cjne	r2,#0x00,00196$
      0001FA 0D               [12] 1488 	inc	r5
      0001FB BD 00 05         [24] 1489 	cjne	r5,#0x00,00196$
      0001FE 0E               [12] 1490 	inc	r6
      0001FF BE 00 01         [24] 1491 	cjne	r6,#0x00,00196$
      000202 0F               [12] 1492 	inc	r7
      000203                       1493 00196$:
      000203 90r00r08         [24] 1494 	mov	dptr,#(_rimestats + 0x0008)
      000206 EA               [12] 1495 	mov	a,r2
      000207 F0               [24] 1496 	movx	@dptr,a
      000208 ED               [12] 1497 	mov	a,r5
      000209 A3               [24] 1498 	inc	dptr
      00020A F0               [24] 1499 	movx	@dptr,a
      00020B EE               [12] 1500 	mov	a,r6
      00020C A3               [24] 1501 	inc	dptr
      00020D F0               [24] 1502 	movx	@dptr,a
      00020E EF               [12] 1503 	mov	a,r7
      00020F A3               [24] 1504 	inc	dptr
      000210 F0               [24] 1505 	movx	@dptr,a
                                   1506 ;	/opt/contiki/core/net/mac/nullrdc.c:233: return last_sent_ok;
      000211 D0 07            [24] 1507 	pop	ar7
      000213 D0 06            [24] 1508 	pop	ar6
      000215 D0 05            [24] 1509 	pop	ar5
                                   1510 ;	/opt/contiki/core/net/mac/nullrdc.c:146: RIMESTATS_ADD(reliabletx);
      000217                       1511 00102$:
                                   1512 ;	/opt/contiki/core/net/mac/nullrdc.c:149: switch(NETSTACK_RADIO.transmit(packetbuf_totlen())) {
      000217 C0 05            [24] 1513 	push	ar5
      000219 C0 06            [24] 1514 	push	ar6
      00021B C0 07            [24] 1515 	push	ar7
      00021D 90r00r06         [24] 1516 	mov	dptr,#(_cc2530_rf_driver + 0x0006)
      000220 E5 81            [12] 1517 	mov	a,sp
      000222 24 F3            [12] 1518 	add	a,#0xf3
      000224 F8               [12] 1519 	mov	r0,a
      000225 E4               [12] 1520 	clr	a
      000226 93               [24] 1521 	movc	a,@a+dptr
      000227 F6               [12] 1522 	mov	@r0,a
      000228 A3               [24] 1523 	inc	dptr
      000229 E4               [12] 1524 	clr	a
      00022A 93               [24] 1525 	movc	a,@a+dptr
      00022B 08               [12] 1526 	inc	r0
      00022C F6               [12] 1527 	mov	@r0,a
      00022D A3               [24] 1528 	inc	dptr
      00022E E4               [12] 1529 	clr	a
      00022F 93               [24] 1530 	movc	a,@a+dptr
      000230 08               [12] 1531 	inc	r0
      000231 F6               [12] 1532 	mov	@r0,a
      000232 C0 06            [24] 1533 	push	ar6
      000234 C0 04            [24] 1534 	push	ar4
      000236 C0 03            [24] 1535 	push	ar3
      000238 78r00            [12] 1536 	mov	r0,#_packetbuf_totlen
      00023A 79s00            [12] 1537 	mov	r1,#(_packetbuf_totlen >> 8)
      00023C 7As00            [12] 1538 	mov	r2,#(_packetbuf_totlen >> 16)
      00023E 12r00r00         [24] 1539 	lcall	__sdcc_banked_call
      000241 AD 82            [24] 1540 	mov	r5,dpl
      000243 AF 83            [24] 1541 	mov	r7,dph
      000245 D0 03            [24] 1542 	pop	ar3
      000247 D0 04            [24] 1543 	pop	ar4
      000249 D0 06            [24] 1544 	pop	ar6
      00024B C0 07            [24] 1545 	push	ar7
      00024D C0 06            [24] 1546 	push	ar6
      00024F C0 05            [24] 1547 	push	ar5
      000251 C0 04            [24] 1548 	push	ar4
      000253 C0 03            [24] 1549 	push	ar3
      000255 E5 81            [12] 1550 	mov	a,sp
      000257 24 EE            [12] 1551 	add	a,#0xee
      000259 F8               [12] 1552 	mov	r0,a
      00025A E6               [12] 1553 	mov	a,@r0
      00025B C0 E0            [24] 1554 	push	acc
      00025D 08               [12] 1555 	inc	r0
      00025E E6               [12] 1556 	mov	a,@r0
      00025F C0 E0            [24] 1557 	push	acc
      000261 08               [12] 1558 	inc	r0
      000262 E6               [12] 1559 	mov	a,@r0
      000263 C0 E0            [24] 1560 	push	acc
      000265 8D 82            [24] 1561 	mov	dpl,r5
      000267 8F 83            [24] 1562 	mov	dph,r7
      000269 D0 02            [24] 1563 	pop	ar2
      00026B D0 01            [24] 1564 	pop	ar1
      00026D D0 00            [24] 1565 	pop	ar0
      00026F 12r00r00         [24] 1566 	lcall	__sdcc_banked_call
      000272 C8               [12] 1567 	xch	a,r0
      000273 E5 81            [12] 1568 	mov	a,sp
      000275 24 F1            [12] 1569 	add	a,#0xf1
      000277 C8               [12] 1570 	xch	a,r0
      000278 A6 82            [24] 1571 	mov	@r0,dpl
      00027A 08               [12] 1572 	inc	r0
      00027B A6 83            [24] 1573 	mov	@r0,dph
      00027D D0 03            [24] 1574 	pop	ar3
      00027F D0 04            [24] 1575 	pop	ar4
      000281 D0 05            [24] 1576 	pop	ar5
      000283 D0 06            [24] 1577 	pop	ar6
      000285 D0 07            [24] 1578 	pop	ar7
      000287 E5 81            [12] 1579 	mov	a,sp
      000289 24 F6            [12] 1580 	add	a,#0xf6
      00028B F8               [12] 1581 	mov	r0,a
      00028C B6 00 0C         [24] 1582 	cjne	@r0,#0x00,00197$
      00028F 08               [12] 1583 	inc	r0
      000290 B6 00 08         [24] 1584 	cjne	@r0,#0x00,00197$
      000293 D0 07            [24] 1585 	pop	ar7
      000295 D0 06            [24] 1586 	pop	ar6
      000297 D0 05            [24] 1587 	pop	ar5
      000299 80 18            [24] 1588 	sjmp	00103$
      00029B                       1589 00197$:
      00029B D0 07            [24] 1590 	pop	ar7
      00029D D0 06            [24] 1591 	pop	ar6
      00029F D0 05            [24] 1592 	pop	ar5
      0002A1 E5 81            [12] 1593 	mov	a,sp
      0002A3 24 F9            [12] 1594 	add	a,#0xf9
      0002A5 F8               [12] 1595 	mov	r0,a
      0002A6 B6 02 07         [24] 1596 	cjne	@r0,#0x02,00198$
      0002A9 08               [12] 1597 	inc	r0
      0002AA B6 00 03         [24] 1598 	cjne	@r0,#0x00,00198$
      0002AD 02r05r67         [24] 1599 	ljmp	00125$
      0002B0                       1600 00198$:
      0002B0 02r05r6D         [24] 1601 	ljmp	00126$
                                   1602 ;	/opt/contiki/core/net/mac/nullrdc.c:150: case RADIO_TX_OK:
      0002B3                       1603 00103$:
                                   1604 ;	/opt/contiki/core/net/mac/nullrdc.c:151: if(is_broadcast) {
      0002B3 EC               [12] 1605 	mov	a,r4
      0002B4 4B               [12] 1606 	orl	a,r3
      0002B5 60 07            [24] 1607 	jz	00123$
                                   1608 ;	/opt/contiki/core/net/mac/nullrdc.c:152: ret = MAC_TX_OK;
      0002B7 7B 00            [12] 1609 	mov	r3,#0x00
      0002B9 7C 00            [12] 1610 	mov	r4,#0x00
      0002BB 02r05r71         [24] 1611 	ljmp	00135$
      0002BE                       1612 00123$:
                                   1613 ;	/opt/contiki/core/net/mac/nullrdc.c:157: wt = RTIMER_NOW();
      0002BE C0 05            [24] 1614 	push	ar5
      0002C0 C0 06            [24] 1615 	push	ar6
      0002C2 C0 07            [24] 1616 	push	ar7
      0002C4 AA E2            [24] 1617 	mov	r2,_T1CNTL
      0002C6 7F 00            [12] 1618 	mov	r7,#0x00
      0002C8 AD E3            [24] 1619 	mov	r5,_T1CNTH
      0002CA 8D 06            [24] 1620 	mov	ar6,r5
      0002CC E4               [12] 1621 	clr	a
      0002CD FD               [12] 1622 	mov	r5,a
      0002CE 2A               [12] 1623 	add	a,r2
      0002CF FA               [12] 1624 	mov	r2,a
      0002D0 EE               [12] 1625 	mov	a,r6
      0002D1 3F               [12] 1626 	addc	a,r7
      0002D2 FF               [12] 1627 	mov	r7,a
                                   1628 ;	/opt/contiki/core/net/mac/nullrdc.c:158: watchdog_periodic();
      0002D3 C0 07            [24] 1629 	push	ar7
      0002D5 C0 06            [24] 1630 	push	ar6
      0002D7 C0 05            [24] 1631 	push	ar5
      0002D9 C0 02            [24] 1632 	push	ar2
      0002DB 78r00            [12] 1633 	mov	r0,#_watchdog_periodic
      0002DD 79s00            [12] 1634 	mov	r1,#(_watchdog_periodic >> 8)
      0002DF 7As00            [12] 1635 	mov	r2,#(_watchdog_periodic >> 16)
      0002E1 12r00r00         [24] 1636 	lcall	__sdcc_banked_call
      0002E4 D0 02            [24] 1637 	pop	ar2
      0002E6 D0 05            [24] 1638 	pop	ar5
      0002E8 D0 06            [24] 1639 	pop	ar6
      0002EA D0 07            [24] 1640 	pop	ar7
                                   1641 ;	/opt/contiki/core/net/mac/nullrdc.c:159: while(RTIMER_CLOCK_LT(RTIMER_NOW(), wt + ACK_WAIT_TIME)) {
      0002EC 74 06            [12] 1642 	mov	a,#0x06
      0002EE 2A               [12] 1643 	add	a,r2
      0002EF FC               [12] 1644 	mov	r4,a
      0002F0 E4               [12] 1645 	clr	a
      0002F1 3F               [12] 1646 	addc	a,r7
      0002F2 FB               [12] 1647 	mov	r3,a
                                   1648 ;	/opt/contiki/core/net/mac/nullrdc.c:233: return last_sent_ok;
      0002F3 D0 07            [24] 1649 	pop	ar7
      0002F5 D0 06            [24] 1650 	pop	ar6
      0002F7 D0 05            [24] 1651 	pop	ar5
                                   1652 ;	/opt/contiki/core/net/mac/nullrdc.c:159: while(RTIMER_CLOCK_LT(RTIMER_NOW(), wt + ACK_WAIT_TIME)) {
      0002F9                       1653 00104$:
      0002F9 C0 05            [24] 1654 	push	ar5
      0002FB C0 06            [24] 1655 	push	ar6
      0002FD C0 07            [24] 1656 	push	ar7
      0002FF AA E2            [24] 1657 	mov	r2,_T1CNTL
      000301 7F 00            [12] 1658 	mov	r7,#0x00
      000303 AD E3            [24] 1659 	mov	r5,_T1CNTH
      000305 8D 06            [24] 1660 	mov	ar6,r5
      000307 E4               [12] 1661 	clr	a
      000308 2A               [12] 1662 	add	a,r2
      000309 FA               [12] 1663 	mov	r2,a
      00030A EE               [12] 1664 	mov	a,r6
      00030B 3F               [12] 1665 	addc	a,r7
      00030C FF               [12] 1666 	mov	r7,a
      00030D EA               [12] 1667 	mov	a,r2
      00030E C3               [12] 1668 	clr	c
      00030F 9C               [12] 1669 	subb	a,r4
      000310 FA               [12] 1670 	mov	r2,a
      000311 EF               [12] 1671 	mov	a,r7
      000312 9B               [12] 1672 	subb	a,r3
      000313 D0 07            [24] 1673 	pop	ar7
      000315 D0 06            [24] 1674 	pop	ar6
      000317 D0 05            [24] 1675 	pop	ar5
      000319 20 E7 DD         [24] 1676 	jb	acc.7,00104$
                                   1677 ;	/opt/contiki/core/net/mac/nullrdc.c:166: ret = MAC_TX_NOACK;
      00031C C0 05            [24] 1678 	push	ar5
      00031E C0 06            [24] 1679 	push	ar6
      000320 C0 07            [24] 1680 	push	ar7
      000322 7B 02            [12] 1681 	mov	r3,#0x02
      000324 7C 00            [12] 1682 	mov	r4,#0x00
                                   1683 ;	/opt/contiki/core/net/mac/nullrdc.c:167: if(NETSTACK_RADIO.receiving_packet() ||
      000326 90r00r12         [24] 1684 	mov	dptr,#(_cc2530_rf_driver + 0x0012)
      000329 E4               [12] 1685 	clr	a
      00032A 93               [24] 1686 	movc	a,@a+dptr
      00032B FA               [12] 1687 	mov	r2,a
      00032C A3               [24] 1688 	inc	dptr
      00032D E4               [12] 1689 	clr	a
      00032E 93               [24] 1690 	movc	a,@a+dptr
      00032F FE               [12] 1691 	mov	r6,a
      000330 A3               [24] 1692 	inc	dptr
      000331 E4               [12] 1693 	clr	a
      000332 93               [24] 1694 	movc	a,@a+dptr
      000333 FF               [12] 1695 	mov	r7,a
      000334 C0 07            [24] 1696 	push	ar7
      000336 C0 05            [24] 1697 	push	ar5
      000338 C0 04            [24] 1698 	push	ar4
      00033A C0 03            [24] 1699 	push	ar3
      00033C C0 02            [24] 1700 	push	ar2
      00033E C0 06            [24] 1701 	push	ar6
      000340 C0 07            [24] 1702 	push	ar7
      000342 D0 02            [24] 1703 	pop	ar2
      000344 D0 01            [24] 1704 	pop	ar1
      000346 D0 00            [24] 1705 	pop	ar0
      000348 12r00r00         [24] 1706 	lcall	__sdcc_banked_call
      00034B AA 82            [24] 1707 	mov	r2,dpl
      00034D AE 83            [24] 1708 	mov	r6,dph
      00034F D0 03            [24] 1709 	pop	ar3
      000351 D0 04            [24] 1710 	pop	ar4
      000353 D0 05            [24] 1711 	pop	ar5
      000355 D0 07            [24] 1712 	pop	ar7
      000357 EA               [12] 1713 	mov	a,r2
      000358 4E               [12] 1714 	orl	a,r6
      000359 D0 07            [24] 1715 	pop	ar7
      00035B D0 06            [24] 1716 	pop	ar6
      00035D D0 05            [24] 1717 	pop	ar5
      00035F 60 03            [24] 1718 	jz	00201$
      000361 02r03rE9         [24] 1719 	ljmp	00110$
      000364                       1720 00201$:
                                   1721 ;	/opt/contiki/core/net/mac/nullrdc.c:168: NETSTACK_RADIO.pending_packet() ||
      000364 C0 05            [24] 1722 	push	ar5
      000366 C0 06            [24] 1723 	push	ar6
      000368 C0 07            [24] 1724 	push	ar7
      00036A 90r00r15         [24] 1725 	mov	dptr,#(_cc2530_rf_driver + 0x0015)
      00036D E4               [12] 1726 	clr	a
      00036E 93               [24] 1727 	movc	a,@a+dptr
      00036F FA               [12] 1728 	mov	r2,a
      000370 A3               [24] 1729 	inc	dptr
      000371 E4               [12] 1730 	clr	a
      000372 93               [24] 1731 	movc	a,@a+dptr
      000373 FE               [12] 1732 	mov	r6,a
      000374 A3               [24] 1733 	inc	dptr
      000375 E4               [12] 1734 	clr	a
      000376 93               [24] 1735 	movc	a,@a+dptr
      000377 FF               [12] 1736 	mov	r7,a
      000378 C0 07            [24] 1737 	push	ar7
      00037A C0 05            [24] 1738 	push	ar5
      00037C C0 04            [24] 1739 	push	ar4
      00037E C0 03            [24] 1740 	push	ar3
      000380 C0 02            [24] 1741 	push	ar2
      000382 C0 06            [24] 1742 	push	ar6
      000384 C0 07            [24] 1743 	push	ar7
      000386 D0 02            [24] 1744 	pop	ar2
      000388 D0 01            [24] 1745 	pop	ar1
      00038A D0 00            [24] 1746 	pop	ar0
      00038C 12r00r00         [24] 1747 	lcall	__sdcc_banked_call
      00038F AA 82            [24] 1748 	mov	r2,dpl
      000391 AE 83            [24] 1749 	mov	r6,dph
      000393 D0 03            [24] 1750 	pop	ar3
      000395 D0 04            [24] 1751 	pop	ar4
      000397 D0 05            [24] 1752 	pop	ar5
      000399 D0 07            [24] 1753 	pop	ar7
      00039B EA               [12] 1754 	mov	a,r2
      00039C 4E               [12] 1755 	orl	a,r6
      00039D D0 07            [24] 1756 	pop	ar7
      00039F D0 06            [24] 1757 	pop	ar6
      0003A1 D0 05            [24] 1758 	pop	ar5
      0003A3 70 44            [24] 1759 	jnz	00110$
                                   1760 ;	/opt/contiki/core/net/mac/nullrdc.c:169: NETSTACK_RADIO.channel_clear() == 0) {
      0003A5 C0 05            [24] 1761 	push	ar5
      0003A7 C0 06            [24] 1762 	push	ar6
      0003A9 C0 07            [24] 1763 	push	ar7
      0003AB 90r00r0F         [24] 1764 	mov	dptr,#(_cc2530_rf_driver + 0x000f)
      0003AE E4               [12] 1765 	clr	a
      0003AF 93               [24] 1766 	movc	a,@a+dptr
      0003B0 FA               [12] 1767 	mov	r2,a
      0003B1 A3               [24] 1768 	inc	dptr
      0003B2 E4               [12] 1769 	clr	a
      0003B3 93               [24] 1770 	movc	a,@a+dptr
      0003B4 FE               [12] 1771 	mov	r6,a
      0003B5 A3               [24] 1772 	inc	dptr
      0003B6 E4               [12] 1773 	clr	a
      0003B7 93               [24] 1774 	movc	a,@a+dptr
      0003B8 FF               [12] 1775 	mov	r7,a
      0003B9 C0 07            [24] 1776 	push	ar7
      0003BB C0 05            [24] 1777 	push	ar5
      0003BD C0 04            [24] 1778 	push	ar4
      0003BF C0 03            [24] 1779 	push	ar3
      0003C1 C0 02            [24] 1780 	push	ar2
      0003C3 C0 06            [24] 1781 	push	ar6
      0003C5 C0 07            [24] 1782 	push	ar7
      0003C7 D0 02            [24] 1783 	pop	ar2
      0003C9 D0 01            [24] 1784 	pop	ar1
      0003CB D0 00            [24] 1785 	pop	ar0
      0003CD 12r00r00         [24] 1786 	lcall	__sdcc_banked_call
      0003D0 AA 82            [24] 1787 	mov	r2,dpl
      0003D2 AE 83            [24] 1788 	mov	r6,dph
      0003D4 D0 03            [24] 1789 	pop	ar3
      0003D6 D0 04            [24] 1790 	pop	ar4
      0003D8 D0 05            [24] 1791 	pop	ar5
      0003DA D0 07            [24] 1792 	pop	ar7
      0003DC EA               [12] 1793 	mov	a,r2
      0003DD 4E               [12] 1794 	orl	a,r6
      0003DE D0 07            [24] 1795 	pop	ar7
      0003E0 D0 06            [24] 1796 	pop	ar6
      0003E2 D0 05            [24] 1797 	pop	ar5
      0003E4 60 03            [24] 1798 	jz	00203$
      0003E6 02r05r71         [24] 1799 	ljmp	00135$
      0003E9                       1800 00203$:
                                   1801 ;	/opt/contiki/core/net/mac/nullrdc.c:173: if(AFTER_ACK_DETECTED_WAIT_TIME > 0) {
      0003E9                       1802 00110$:
                                   1803 ;	/opt/contiki/core/net/mac/nullrdc.c:174: wt = RTIMER_NOW();
      0003E9 C0 05            [24] 1804 	push	ar5
      0003EB C0 06            [24] 1805 	push	ar6
      0003ED C0 07            [24] 1806 	push	ar7
      0003EF AA E2            [24] 1807 	mov	r2,_T1CNTL
      0003F1 7F 00            [12] 1808 	mov	r7,#0x00
      0003F3 AD E3            [24] 1809 	mov	r5,_T1CNTH
      0003F5 8D 06            [24] 1810 	mov	ar6,r5
      0003F7 E4               [12] 1811 	clr	a
      0003F8 FD               [12] 1812 	mov	r5,a
      0003F9 2A               [12] 1813 	add	a,r2
      0003FA FA               [12] 1814 	mov	r2,a
      0003FB EE               [12] 1815 	mov	a,r6
      0003FC 3F               [12] 1816 	addc	a,r7
      0003FD FF               [12] 1817 	mov	r7,a
                                   1818 ;	/opt/contiki/core/net/mac/nullrdc.c:175: watchdog_periodic();
      0003FE C0 07            [24] 1819 	push	ar7
      000400 C0 06            [24] 1820 	push	ar6
      000402 C0 05            [24] 1821 	push	ar5
      000404 C0 04            [24] 1822 	push	ar4
      000406 C0 03            [24] 1823 	push	ar3
      000408 C0 02            [24] 1824 	push	ar2
      00040A 78r00            [12] 1825 	mov	r0,#_watchdog_periodic
      00040C 79s00            [12] 1826 	mov	r1,#(_watchdog_periodic >> 8)
      00040E 7As00            [12] 1827 	mov	r2,#(_watchdog_periodic >> 16)
      000410 12r00r00         [24] 1828 	lcall	__sdcc_banked_call
      000413 D0 02            [24] 1829 	pop	ar2
      000415 D0 03            [24] 1830 	pop	ar3
      000417 D0 04            [24] 1831 	pop	ar4
      000419 D0 05            [24] 1832 	pop	ar5
      00041B D0 06            [24] 1833 	pop	ar6
      00041D D0 07            [24] 1834 	pop	ar7
                                   1835 ;	/opt/contiki/core/net/mac/nullrdc.c:176: while(RTIMER_CLOCK_LT(RTIMER_NOW(),
      00041F E5 81            [12] 1836 	mov	a,sp
      000421 24 F6            [12] 1837 	add	a,#0xf6
      000423 F8               [12] 1838 	mov	r0,a
      000424 74 0A            [12] 1839 	mov	a,#0x0A
      000426 2A               [12] 1840 	add	a,r2
      000427 F6               [12] 1841 	mov	@r0,a
      000428 E4               [12] 1842 	clr	a
      000429 3F               [12] 1843 	addc	a,r7
      00042A 08               [12] 1844 	inc	r0
      00042B F6               [12] 1845 	mov	@r0,a
                                   1846 ;	/opt/contiki/core/net/mac/nullrdc.c:233: return last_sent_ok;
      00042C D0 07            [24] 1847 	pop	ar7
      00042E D0 06            [24] 1848 	pop	ar6
      000430 D0 05            [24] 1849 	pop	ar5
                                   1850 ;	/opt/contiki/core/net/mac/nullrdc.c:176: while(RTIMER_CLOCK_LT(RTIMER_NOW(),
      000432                       1851 00107$:
      000432 C0 05            [24] 1852 	push	ar5
      000434 C0 06            [24] 1853 	push	ar6
      000436 C0 07            [24] 1854 	push	ar7
      000438 AA E2            [24] 1855 	mov	r2,_T1CNTL
      00043A 7F 00            [12] 1856 	mov	r7,#0x00
      00043C AD E3            [24] 1857 	mov	r5,_T1CNTH
      00043E 8D 06            [24] 1858 	mov	ar6,r5
      000440 E4               [12] 1859 	clr	a
      000441 2A               [12] 1860 	add	a,r2
      000442 FA               [12] 1861 	mov	r2,a
      000443 EE               [12] 1862 	mov	a,r6
      000444 3F               [12] 1863 	addc	a,r7
      000445 FF               [12] 1864 	mov	r7,a
      000446 E5 81            [12] 1865 	mov	a,sp
      000448 24 F6            [12] 1866 	add	a,#0xf6
      00044A F8               [12] 1867 	mov	r0,a
      00044B EA               [12] 1868 	mov	a,r2
      00044C C3               [12] 1869 	clr	c
      00044D 96               [12] 1870 	subb	a,@r0
      00044E FA               [12] 1871 	mov	r2,a
      00044F EF               [12] 1872 	mov	a,r7
      000450 08               [12] 1873 	inc	r0
      000451 96               [12] 1874 	subb	a,@r0
      000452 D0 07            [24] 1875 	pop	ar7
      000454 D0 06            [24] 1876 	pop	ar6
      000456 D0 05            [24] 1877 	pop	ar5
      000458 20 E7 D7         [24] 1878 	jb	acc.7,00107$
                                   1879 ;	/opt/contiki/core/net/mac/nullrdc.c:185: if(NETSTACK_RADIO.pending_packet()) {
      00045B C0 05            [24] 1880 	push	ar5
      00045D C0 06            [24] 1881 	push	ar6
      00045F C0 07            [24] 1882 	push	ar7
      000461 90r00r15         [24] 1883 	mov	dptr,#(_cc2530_rf_driver + 0x0015)
      000464 E4               [12] 1884 	clr	a
      000465 93               [24] 1885 	movc	a,@a+dptr
      000466 FA               [12] 1886 	mov	r2,a
      000467 A3               [24] 1887 	inc	dptr
      000468 E4               [12] 1888 	clr	a
      000469 93               [24] 1889 	movc	a,@a+dptr
      00046A FE               [12] 1890 	mov	r6,a
      00046B A3               [24] 1891 	inc	dptr
      00046C E4               [12] 1892 	clr	a
      00046D 93               [24] 1893 	movc	a,@a+dptr
      00046E FF               [12] 1894 	mov	r7,a
      00046F C0 07            [24] 1895 	push	ar7
      000471 C0 05            [24] 1896 	push	ar5
      000473 C0 04            [24] 1897 	push	ar4
      000475 C0 03            [24] 1898 	push	ar3
      000477 C0 02            [24] 1899 	push	ar2
      000479 C0 06            [24] 1900 	push	ar6
      00047B C0 07            [24] 1901 	push	ar7
      00047D D0 02            [24] 1902 	pop	ar2
      00047F D0 01            [24] 1903 	pop	ar1
      000481 D0 00            [24] 1904 	pop	ar0
      000483 12r00r00         [24] 1905 	lcall	__sdcc_banked_call
      000486 AA 82            [24] 1906 	mov	r2,dpl
      000488 AE 83            [24] 1907 	mov	r6,dph
      00048A D0 03            [24] 1908 	pop	ar3
      00048C D0 04            [24] 1909 	pop	ar4
      00048E D0 05            [24] 1910 	pop	ar5
      000490 D0 07            [24] 1911 	pop	ar7
      000492 EA               [12] 1912 	mov	a,r2
      000493 4E               [12] 1913 	orl	a,r6
      000494 D0 07            [24] 1914 	pop	ar7
      000496 D0 06            [24] 1915 	pop	ar6
      000498 D0 05            [24] 1916 	pop	ar5
      00049A 70 03            [24] 1917 	jnz	00205$
      00049C 02r05r71         [24] 1918 	ljmp	00135$
      00049F                       1919 00205$:
                                   1920 ;	/opt/contiki/core/net/mac/nullrdc.c:186: len = NETSTACK_RADIO.read(ackbuf, ACK_LEN);
      00049F C0 05            [24] 1921 	push	ar5
      0004A1 C0 06            [24] 1922 	push	ar6
      0004A3 C0 07            [24] 1923 	push	ar7
      0004A5 90r00r0C         [24] 1924 	mov	dptr,#(_cc2530_rf_driver + 0x000c)
      0004A8 E4               [12] 1925 	clr	a
      0004A9 93               [24] 1926 	movc	a,@a+dptr
      0004AA FC               [12] 1927 	mov	r4,a
      0004AB A3               [24] 1928 	inc	dptr
      0004AC E4               [12] 1929 	clr	a
      0004AD 93               [24] 1930 	movc	a,@a+dptr
      0004AE FB               [12] 1931 	mov	r3,a
      0004AF A3               [24] 1932 	inc	dptr
      0004B0 E4               [12] 1933 	clr	a
      0004B1 93               [24] 1934 	movc	a,@a+dptr
      0004B2 FA               [12] 1935 	mov	r2,a
      0004B3 E5 81            [12] 1936 	mov	a,sp
      0004B5 24 F6            [12] 1937 	add	a,#0xf6
      0004B7 F8               [12] 1938 	mov	r0,a
      0004B8 E5 81            [12] 1939 	mov	a,sp
      0004BA 24 FB            [12] 1940 	add	a,#0xFB
      0004BC F6               [12] 1941 	mov	@r0,a
      0004BD E5 81            [12] 1942 	mov	a,sp
      0004BF 24 F6            [12] 1943 	add	a,#0xf6
      0004C1 F8               [12] 1944 	mov	r0,a
      0004C2 86 05            [24] 1945 	mov	ar5,@r0
      0004C4 7E 00            [12] 1946 	mov	r6,#0x00
      0004C6 7F 40            [12] 1947 	mov	r7,#0x40
      0004C8 C0 05            [24] 1948 	push	ar5
      0004CA C0 04            [24] 1949 	push	ar4
      0004CC C0 03            [24] 1950 	push	ar3
      0004CE C0 02            [24] 1951 	push	ar2
      0004D0 74 03            [12] 1952 	mov	a,#0x03
      0004D2 C0 E0            [24] 1953 	push	acc
      0004D4 E4               [12] 1954 	clr	a
      0004D5 C0 E0            [24] 1955 	push	acc
      0004D7 C0 04            [24] 1956 	push	ar4
      0004D9 C0 03            [24] 1957 	push	ar3
      0004DB C0 02            [24] 1958 	push	ar2
      0004DD 8D 82            [24] 1959 	mov	dpl,r5
      0004DF 8E 83            [24] 1960 	mov	dph,r6
      0004E1 8F F0            [24] 1961 	mov	b,r7
      0004E3 D0 02            [24] 1962 	pop	ar2
      0004E5 D0 01            [24] 1963 	pop	ar1
      0004E7 D0 00            [24] 1964 	pop	ar0
      0004E9 12r00r00         [24] 1965 	lcall	__sdcc_banked_call
      0004EC AE 82            [24] 1966 	mov	r6,dpl
      0004EE AF 83            [24] 1967 	mov	r7,dph
      0004F0 15 81            [12] 1968 	dec	sp
      0004F2 15 81            [12] 1969 	dec	sp
      0004F4 D0 02            [24] 1970 	pop	ar2
      0004F6 D0 03            [24] 1971 	pop	ar3
      0004F8 D0 04            [24] 1972 	pop	ar4
      0004FA D0 05            [24] 1973 	pop	ar5
                                   1974 ;	/opt/contiki/core/net/mac/nullrdc.c:187: if(len == ACK_LEN && ackbuf[2] == dsn) {
      0004FC BE 03 05         [24] 1975 	cjne	r6,#0x03,00206$
      0004FF BF 00 02         [24] 1976 	cjne	r7,#0x00,00206$
      000502 80 08            [24] 1977 	sjmp	00207$
      000504                       1978 00206$:
      000504 D0 07            [24] 1979 	pop	ar7
      000506 D0 06            [24] 1980 	pop	ar6
      000508 D0 05            [24] 1981 	pop	ar5
      00050A 80 55            [24] 1982 	sjmp	00113$
      00050C                       1983 00207$:
      00050C D0 07            [24] 1984 	pop	ar7
      00050E D0 06            [24] 1985 	pop	ar6
      000510 D0 05            [24] 1986 	pop	ar5
      000512 E5 81            [12] 1987 	mov	a,sp
      000514 24 F9            [12] 1988 	add	a,#0xf9
      000516 F8               [12] 1989 	mov	r0,a
      000517 74 02            [12] 1990 	mov	a,#0x02
      000519 26               [12] 1991 	add	a,@r0
      00051A F9               [12] 1992 	mov	r1,a
      00051B 87 02            [24] 1993 	mov	ar2,@r1
      00051D E5 81            [12] 1994 	mov	a,sp
      00051F 24 FD            [12] 1995 	add	a,#0xfd
      000521 F8               [12] 1996 	mov	r0,a
      000522 E6               [12] 1997 	mov	a,@r0
      000523 B5 02 3B         [24] 1998 	cjne	a,ar2,00113$
                                   1999 ;	/opt/contiki/core/net/mac/nullrdc.c:189: RIMESTATS_ADD(ackrx);
      000526 C0 05            [24] 2000 	push	ar5
      000528 C0 06            [24] 2001 	push	ar6
      00052A C0 07            [24] 2002 	push	ar7
      00052C 90r00r1C         [24] 2003 	mov	dptr,#(_rimestats + 0x001c)
      00052F E0               [24] 2004 	movx	a,@dptr
      000530 FA               [12] 2005 	mov	r2,a
      000531 A3               [24] 2006 	inc	dptr
      000532 E0               [24] 2007 	movx	a,@dptr
      000533 FD               [12] 2008 	mov	r5,a
      000534 A3               [24] 2009 	inc	dptr
      000535 E0               [24] 2010 	movx	a,@dptr
      000536 FE               [12] 2011 	mov	r6,a
      000537 A3               [24] 2012 	inc	dptr
      000538 E0               [24] 2013 	movx	a,@dptr
      000539 FF               [12] 2014 	mov	r7,a
      00053A 0A               [12] 2015 	inc	r2
      00053B BA 00 09         [24] 2016 	cjne	r2,#0x00,00210$
      00053E 0D               [12] 2017 	inc	r5
      00053F BD 00 05         [24] 2018 	cjne	r5,#0x00,00210$
      000542 0E               [12] 2019 	inc	r6
      000543 BE 00 01         [24] 2020 	cjne	r6,#0x00,00210$
      000546 0F               [12] 2021 	inc	r7
      000547                       2022 00210$:
      000547 90r00r1C         [24] 2023 	mov	dptr,#(_rimestats + 0x001c)
      00054A EA               [12] 2024 	mov	a,r2
      00054B F0               [24] 2025 	movx	@dptr,a
      00054C ED               [12] 2026 	mov	a,r5
      00054D A3               [24] 2027 	inc	dptr
      00054E F0               [24] 2028 	movx	@dptr,a
      00054F EE               [12] 2029 	mov	a,r6
      000550 A3               [24] 2030 	inc	dptr
      000551 F0               [24] 2031 	movx	@dptr,a
      000552 EF               [12] 2032 	mov	a,r7
      000553 A3               [24] 2033 	inc	dptr
      000554 F0               [24] 2034 	movx	@dptr,a
                                   2035 ;	/opt/contiki/core/net/mac/nullrdc.c:190: ret = MAC_TX_OK;
      000555 7B 00            [12] 2036 	mov	r3,#0x00
      000557 7C 00            [12] 2037 	mov	r4,#0x00
      000559 D0 07            [24] 2038 	pop	ar7
      00055B D0 06            [24] 2039 	pop	ar6
      00055D D0 05            [24] 2040 	pop	ar5
      00055F 80 10            [24] 2041 	sjmp	00135$
      000561                       2042 00113$:
                                   2043 ;	/opt/contiki/core/net/mac/nullrdc.c:193: ret = MAC_TX_COLLISION;
      000561 7B 01            [12] 2044 	mov	r3,#0x01
      000563 7C 00            [12] 2045 	mov	r4,#0x00
                                   2046 ;	/opt/contiki/core/net/mac/nullrdc.c:200: break;
                                   2047 ;	/opt/contiki/core/net/mac/nullrdc.c:201: case RADIO_TX_COLLISION:
      000565 80 0A            [24] 2048 	sjmp	00135$
      000567                       2049 00125$:
                                   2050 ;	/opt/contiki/core/net/mac/nullrdc.c:202: ret = MAC_TX_COLLISION;
      000567 7B 01            [12] 2051 	mov	r3,#0x01
      000569 7C 00            [12] 2052 	mov	r4,#0x00
                                   2053 ;	/opt/contiki/core/net/mac/nullrdc.c:203: break;
                                   2054 ;	/opt/contiki/core/net/mac/nullrdc.c:204: default:
      00056B 80 04            [24] 2055 	sjmp	00135$
      00056D                       2056 00126$:
                                   2057 ;	/opt/contiki/core/net/mac/nullrdc.c:205: ret = MAC_TX_ERR;
      00056D 7B 04            [12] 2058 	mov	r3,#0x04
      00056F 7C 00            [12] 2059 	mov	r4,#0x00
                                   2060 ;	/opt/contiki/core/net/mac/nullrdc.c:207: }
      000571                       2061 00135$:
                                   2062 ;	/opt/contiki/core/net/mac/nullrdc.c:229: if(ret == MAC_TX_OK) {
      000571 EB               [12] 2063 	mov	a,r3
      000572 4C               [12] 2064 	orl	a,r4
      000573 70 0A            [24] 2065 	jnz	00137$
                                   2066 ;	/opt/contiki/core/net/mac/nullrdc.c:230: last_sent_ok = 1;
      000575 E5 81            [12] 2067 	mov	a,sp
      000577 24 FB            [12] 2068 	add	a,#0xfb
      000579 F8               [12] 2069 	mov	r0,a
      00057A 76 01            [12] 2070 	mov	@r0,#0x01
      00057C 08               [12] 2071 	inc	r0
      00057D 76 00            [12] 2072 	mov	@r0,#0x00
      00057F                       2073 00137$:
                                   2074 ;	/opt/contiki/core/net/mac/nullrdc.c:232: mac_call_sent_callback(sent, ptr, ret, 1);
      00057F 74 01            [12] 2075 	mov	a,#0x01
      000581 C0 E0            [24] 2076 	push	acc
      000583 E4               [12] 2077 	clr	a
      000584 C0 E0            [24] 2078 	push	acc
      000586 C0 03            [24] 2079 	push	ar3
      000588 C0 04            [24] 2080 	push	ar4
      00058A E5 81            [12] 2081 	mov	a,sp
      00058C 24 EC            [12] 2082 	add	a,#0xec
      00058E F8               [12] 2083 	mov	r0,a
      00058F E6               [12] 2084 	mov	a,@r0
      000590 C0 E0            [24] 2085 	push	acc
      000592 08               [12] 2086 	inc	r0
      000593 E6               [12] 2087 	mov	a,@r0
      000594 C0 E0            [24] 2088 	push	acc
      000596 08               [12] 2089 	inc	r0
      000597 E6               [12] 2090 	mov	a,@r0
      000598 C0 E0            [24] 2091 	push	acc
      00059A 8D 82            [24] 2092 	mov	dpl,r5
      00059C 8E 83            [24] 2093 	mov	dph,r6
      00059E 8F F0            [24] 2094 	mov	b,r7
      0005A0 78r00            [12] 2095 	mov	r0,#_mac_call_sent_callback
      0005A2 79s00            [12] 2096 	mov	r1,#(_mac_call_sent_callback >> 8)
      0005A4 7As00            [12] 2097 	mov	r2,#(_mac_call_sent_callback >> 16)
      0005A6 12r00r00         [24] 2098 	lcall	__sdcc_banked_call
      0005A9 E5 81            [12] 2099 	mov	a,sp
      0005AB 24 F9            [12] 2100 	add	a,#0xf9
                                   2101 ;	/opt/contiki/core/net/mac/nullrdc.c:233: return last_sent_ok;
      0005AD F5 81            [12] 2102 	mov	sp,a
      0005AF 24 FB            [12] 2103 	add	a,#0xfb
      0005B1 F8               [12] 2104 	mov	r0,a
      0005B2 86 82            [24] 2105 	mov	dpl,@r0
      0005B4 08               [12] 2106 	inc	r0
      0005B5 86 83            [24] 2107 	mov	dph,@r0
      0005B7 E5 81            [12] 2108 	mov	a,sp
      0005B9 24 F5            [12] 2109 	add	a,#0xF5
      0005BB F5 81            [12] 2110 	mov	sp,a
      0005BD 02r00r00         [24] 2111 	ljmp	__sdcc_banked_ret
                                   2112 ;------------------------------------------------------------
                                   2113 ;Allocation info for local variables in function 'send_packet'
                                   2114 ;------------------------------------------------------------
                                   2115 ;ptr                       Allocated to stack - sp -5
                                   2116 ;sent                      Allocated to registers r5 r6 r7 
                                   2117 ;------------------------------------------------------------
                                   2118 ;	/opt/contiki/core/net/mac/nullrdc.c:237: send_packet(mac_callback_t sent, void *ptr)
                                   2119 ;	-----------------------------------------
                                   2120 ;	 function send_packet
                                   2121 ;	-----------------------------------------
      0005C0                       2122 _send_packet:
      0005C0 AD 82            [24] 2123 	mov	r5,dpl
      0005C2 AE 83            [24] 2124 	mov	r6,dph
      0005C4 AF F0            [24] 2125 	mov	r7,b
                                   2126 ;	/opt/contiki/core/net/mac/nullrdc.c:239: send_one_packet(sent, ptr);
      0005C6 E5 81            [12] 2127 	mov	a,sp
      0005C8 24 FB            [12] 2128 	add	a,#0xfb
      0005CA F8               [12] 2129 	mov	r0,a
      0005CB E6               [12] 2130 	mov	a,@r0
      0005CC C0 E0            [24] 2131 	push	acc
      0005CE 08               [12] 2132 	inc	r0
      0005CF E6               [12] 2133 	mov	a,@r0
      0005D0 C0 E0            [24] 2134 	push	acc
      0005D2 08               [12] 2135 	inc	r0
      0005D3 E6               [12] 2136 	mov	a,@r0
      0005D4 C0 E0            [24] 2137 	push	acc
      0005D6 8D 82            [24] 2138 	mov	dpl,r5
      0005D8 8E 83            [24] 2139 	mov	dph,r6
      0005DA 8F F0            [24] 2140 	mov	b,r7
      0005DC 78r00            [12] 2141 	mov	r0,#_send_one_packet
      0005DE 79s00            [12] 2142 	mov	r1,#(_send_one_packet >> 8)
      0005E0 7As00            [12] 2143 	mov	r2,#(_send_one_packet >> 16)
      0005E2 12r00r00         [24] 2144 	lcall	__sdcc_banked_call
      0005E5 15 81            [12] 2145 	dec	sp
      0005E7 15 81            [12] 2146 	dec	sp
      0005E9 15 81            [12] 2147 	dec	sp
      0005EB 02r00r00         [24] 2148 	ljmp	__sdcc_banked_ret
                                   2149 ;------------------------------------------------------------
                                   2150 ;Allocation info for local variables in function 'send_list'
                                   2151 ;------------------------------------------------------------
                                   2152 ;ptr                       Allocated to stack - sp -8
                                   2153 ;buf_list                  Allocated to stack - sp -11
                                   2154 ;sent                      Allocated to stack - sp -2
                                   2155 ;next                      Allocated to registers r5 r6 r7 
                                   2156 ;last_sent_ok              Allocated to registers r3 r4 
                                   2157 ;------------------------------------------------------------
                                   2158 ;	/opt/contiki/core/net/mac/nullrdc.c:243: send_list(mac_callback_t sent, void *ptr, struct rdc_buf_list *buf_list)
                                   2159 ;	-----------------------------------------
                                   2160 ;	 function send_list
                                   2161 ;	-----------------------------------------
      0005EE                       2162 _send_list:
      0005EE C0 82            [24] 2163 	push	dpl
      0005F0 C0 83            [24] 2164 	push	dph
      0005F2 C0 F0            [24] 2165 	push	b
                                   2166 ;	/opt/contiki/core/net/mac/nullrdc.c:245: while(buf_list != NULL) {
      0005F4                       2167 00103$:
      0005F4 E5 81            [12] 2168 	mov	a,sp
      0005F6 24 F5            [12] 2169 	add	a,#0xf5
      0005F8 F8               [12] 2170 	mov	r0,a
      0005F9 E6               [12] 2171 	mov	a,@r0
      0005FA 08               [12] 2172 	inc	r0
      0005FB 46               [12] 2173 	orl	a,@r0
      0005FC 70 03            [24] 2174 	jnz	00117$
      0005FE 02r06r9C         [24] 2175 	ljmp	00106$
      000601                       2176 00117$:
                                   2177 ;	/opt/contiki/core/net/mac/nullrdc.c:248: struct rdc_buf_list *next = buf_list->next;
      000601 E5 81            [12] 2178 	mov	a,sp
      000603 24 F5            [12] 2179 	add	a,#0xf5
      000605 F8               [12] 2180 	mov	r0,a
      000606 86 02            [24] 2181 	mov	ar2,@r0
      000608 08               [12] 2182 	inc	r0
      000609 86 03            [24] 2183 	mov	ar3,@r0
      00060B 08               [12] 2184 	inc	r0
      00060C 86 04            [24] 2185 	mov	ar4,@r0
      00060E 8A 82            [24] 2186 	mov	dpl,r2
      000610 8B 83            [24] 2187 	mov	dph,r3
      000612 8C F0            [24] 2188 	mov	b,r4
      000614 12r00r00         [24] 2189 	lcall	__gptrget
      000617 FD               [12] 2190 	mov	r5,a
      000618 A3               [24] 2191 	inc	dptr
      000619 12r00r00         [24] 2192 	lcall	__gptrget
      00061C FE               [12] 2193 	mov	r6,a
      00061D A3               [24] 2194 	inc	dptr
      00061E 12r00r00         [24] 2195 	lcall	__gptrget
      000621 FF               [12] 2196 	mov	r7,a
                                   2197 ;	/opt/contiki/core/net/mac/nullrdc.c:251: queuebuf_to_packetbuf(buf_list->buf);
      000622 74 03            [12] 2198 	mov	a,#0x03
      000624 2A               [12] 2199 	add	a,r2
      000625 FA               [12] 2200 	mov	r2,a
      000626 E4               [12] 2201 	clr	a
      000627 3B               [12] 2202 	addc	a,r3
      000628 FB               [12] 2203 	mov	r3,a
      000629 8A 82            [24] 2204 	mov	dpl,r2
      00062B 8B 83            [24] 2205 	mov	dph,r3
      00062D 8C F0            [24] 2206 	mov	b,r4
      00062F 12r00r00         [24] 2207 	lcall	__gptrget
      000632 FA               [12] 2208 	mov	r2,a
      000633 A3               [24] 2209 	inc	dptr
      000634 12r00r00         [24] 2210 	lcall	__gptrget
      000637 FB               [12] 2211 	mov	r3,a
      000638 A3               [24] 2212 	inc	dptr
      000639 12r00r00         [24] 2213 	lcall	__gptrget
      00063C FC               [12] 2214 	mov	r4,a
      00063D 8A 82            [24] 2215 	mov	dpl,r2
      00063F 8B 83            [24] 2216 	mov	dph,r3
      000641 8C F0            [24] 2217 	mov	b,r4
      000643 C0 07            [24] 2218 	push	ar7
      000645 C0 06            [24] 2219 	push	ar6
      000647 C0 05            [24] 2220 	push	ar5
      000649 78r00            [12] 2221 	mov	r0,#_queuebuf_to_packetbuf
      00064B 79s00            [12] 2222 	mov	r1,#(_queuebuf_to_packetbuf >> 8)
      00064D 7As00            [12] 2223 	mov	r2,#(_queuebuf_to_packetbuf >> 16)
      00064F 12r00r00         [24] 2224 	lcall	__sdcc_banked_call
                                   2225 ;	/opt/contiki/core/net/mac/nullrdc.c:252: last_sent_ok = send_one_packet(sent, ptr);
      000652 E5 81            [12] 2226 	mov	a,sp
      000654 24 F5            [12] 2227 	add	a,#0xf5
      000656 F8               [12] 2228 	mov	r0,a
      000657 E6               [12] 2229 	mov	a,@r0
      000658 C0 E0            [24] 2230 	push	acc
      00065A 08               [12] 2231 	inc	r0
      00065B E6               [12] 2232 	mov	a,@r0
      00065C C0 E0            [24] 2233 	push	acc
      00065E 08               [12] 2234 	inc	r0
      00065F E6               [12] 2235 	mov	a,@r0
      000660 C0 E0            [24] 2236 	push	acc
      000662 E5 81            [12] 2237 	mov	a,sp
      000664 24 F8            [12] 2238 	add	a,#0xf8
      000666 F8               [12] 2239 	mov	r0,a
      000667 86 82            [24] 2240 	mov	dpl,@r0
      000669 08               [12] 2241 	inc	r0
      00066A 86 83            [24] 2242 	mov	dph,@r0
      00066C 08               [12] 2243 	inc	r0
      00066D 86 F0            [24] 2244 	mov	b,@r0
      00066F 78r00            [12] 2245 	mov	r0,#_send_one_packet
      000671 79s00            [12] 2246 	mov	r1,#(_send_one_packet >> 8)
      000673 7As00            [12] 2247 	mov	r2,#(_send_one_packet >> 16)
      000675 12r00r00         [24] 2248 	lcall	__sdcc_banked_call
      000678 AB 82            [24] 2249 	mov	r3,dpl
      00067A AC 83            [24] 2250 	mov	r4,dph
      00067C 15 81            [12] 2251 	dec	sp
      00067E 15 81            [12] 2252 	dec	sp
      000680 15 81            [12] 2253 	dec	sp
      000682 D0 05            [24] 2254 	pop	ar5
      000684 D0 06            [24] 2255 	pop	ar6
      000686 D0 07            [24] 2256 	pop	ar7
                                   2257 ;	/opt/contiki/core/net/mac/nullrdc.c:257: if(!last_sent_ok) {
      000688 EB               [12] 2258 	mov	a,r3
      000689 4C               [12] 2259 	orl	a,r4
                                   2260 ;	/opt/contiki/core/net/mac/nullrdc.c:258: return;
      00068A 60 10            [24] 2261 	jz	00106$
                                   2262 ;	/opt/contiki/core/net/mac/nullrdc.c:260: buf_list = next;
      00068C E5 81            [12] 2263 	mov	a,sp
      00068E 24 F5            [12] 2264 	add	a,#0xf5
      000690 F8               [12] 2265 	mov	r0,a
      000691 A6 05            [24] 2266 	mov	@r0,ar5
      000693 08               [12] 2267 	inc	r0
      000694 A6 06            [24] 2268 	mov	@r0,ar6
      000696 08               [12] 2269 	inc	r0
      000697 A6 07            [24] 2270 	mov	@r0,ar7
      000699 02r05rF4         [24] 2271 	ljmp	00103$
      00069C                       2272 00106$:
      00069C 15 81            [12] 2273 	dec	sp
      00069E 15 81            [12] 2274 	dec	sp
      0006A0 15 81            [12] 2275 	dec	sp
      0006A2 02r00r00         [24] 2276 	ljmp	__sdcc_banked_ret
                                   2277 ;------------------------------------------------------------
                                   2278 ;Allocation info for local variables in function 'packet_input'
                                   2279 ;------------------------------------------------------------
                                   2280 ;duplicate                 Allocated to registers r4 r5 
                                   2281 ;------------------------------------------------------------
                                   2282 ;	/opt/contiki/core/net/mac/nullrdc.c:265: packet_input(void)
                                   2283 ;	-----------------------------------------
                                   2284 ;	 function packet_input
                                   2285 ;	-----------------------------------------
      0006A5                       2286 _packet_input:
                                   2287 ;	/opt/contiki/core/net/mac/nullrdc.c:276: if(packetbuf_datalen() == ACK_LEN) {
      0006A5 78r00            [12] 2288 	mov	r0,#_packetbuf_datalen
      0006A7 79s00            [12] 2289 	mov	r1,#(_packetbuf_datalen >> 8)
      0006A9 7As00            [12] 2290 	mov	r2,#(_packetbuf_datalen >> 16)
      0006AB 12r00r00         [24] 2291 	lcall	__sdcc_banked_call
      0006AE AE 82            [24] 2292 	mov	r6,dpl
      0006B0 AF 83            [24] 2293 	mov	r7,dph
      0006B2 BE 03 06         [24] 2294 	cjne	r6,#0x03,00133$
      0006B5 BF 00 03         [24] 2295 	cjne	r7,#0x00,00133$
      0006B8 02r07r86         [24] 2296 	ljmp	00116$
      0006BB                       2297 00133$:
                                   2298 ;	/opt/contiki/core/net/mac/nullrdc.c:281: if(NETSTACK_FRAMER.parse() < 0) {
      0006BB 90r00r06         [24] 2299 	mov	dptr,#(_framer_802154 + 0x0006)
      0006BE E4               [12] 2300 	clr	a
      0006BF 93               [24] 2301 	movc	a,@a+dptr
      0006C0 FD               [12] 2302 	mov	r5,a
      0006C1 A3               [24] 2303 	inc	dptr
      0006C2 E4               [12] 2304 	clr	a
      0006C3 93               [24] 2305 	movc	a,@a+dptr
      0006C4 FE               [12] 2306 	mov	r6,a
      0006C5 A3               [24] 2307 	inc	dptr
      0006C6 E4               [12] 2308 	clr	a
      0006C7 93               [24] 2309 	movc	a,@a+dptr
      0006C8 FF               [12] 2310 	mov	r7,a
      0006C9 C0 07            [24] 2311 	push	ar7
      0006CB C0 05            [24] 2312 	push	ar5
      0006CD C0 06            [24] 2313 	push	ar6
      0006CF C0 07            [24] 2314 	push	ar7
      0006D1 D0 02            [24] 2315 	pop	ar2
      0006D3 D0 01            [24] 2316 	pop	ar1
      0006D5 D0 00            [24] 2317 	pop	ar0
      0006D7 12r00r00         [24] 2318 	lcall	__sdcc_banked_call
      0006DA AD 82            [24] 2319 	mov	r5,dpl
      0006DC AE 83            [24] 2320 	mov	r6,dph
      0006DE D0 07            [24] 2321 	pop	ar7
      0006E0 EE               [12] 2322 	mov	a,r6
      0006E1 30 E7 03         [24] 2323 	jnb	acc.7,00134$
      0006E4 02r07r86         [24] 2324 	ljmp	00116$
      0006E7                       2325 00134$:
                                   2326 ;	/opt/contiki/core/net/mac/nullrdc.c:285: &linkaddr_node_addr) &&
                                   2327 ;	/opt/contiki/core/net/mac/nullrdc.c:284: } else if(!linkaddr_cmp(packetbuf_addr(PACKETBUF_ADDR_RECEIVER),
      0006E7 75 82 1B         [24] 2328 	mov	dpl,#0x1B
      0006EA 78r00            [12] 2329 	mov	r0,#_packetbuf_addr
      0006EC 79s00            [12] 2330 	mov	r1,#(_packetbuf_addr >> 8)
      0006EE 7As00            [12] 2331 	mov	r2,#(_packetbuf_addr >> 16)
      0006F0 12r00r00         [24] 2332 	lcall	__sdcc_banked_call
      0006F3 AD 82            [24] 2333 	mov	r5,dpl
      0006F5 AE 83            [24] 2334 	mov	r6,dph
      0006F7 AF F0            [24] 2335 	mov	r7,b
      0006F9 74r00            [12] 2336 	mov	a,#_linkaddr_node_addr
      0006FB C0 E0            [24] 2337 	push	acc
      0006FD 74s00            [12] 2338 	mov	a,#(_linkaddr_node_addr >> 8)
      0006FF C0 E0            [24] 2339 	push	acc
      000701 E4               [12] 2340 	clr	a
      000702 C0 E0            [24] 2341 	push	acc
      000704 8D 82            [24] 2342 	mov	dpl,r5
      000706 8E 83            [24] 2343 	mov	dph,r6
      000708 8F F0            [24] 2344 	mov	b,r7
      00070A 78r00            [12] 2345 	mov	r0,#_linkaddr_cmp
      00070C 79s00            [12] 2346 	mov	r1,#(_linkaddr_cmp >> 8)
      00070E 7As00            [12] 2347 	mov	r2,#(_linkaddr_cmp >> 16)
      000710 12r00r00         [24] 2348 	lcall	__sdcc_banked_call
      000713 AE 82            [24] 2349 	mov	r6,dpl
      000715 AF 83            [24] 2350 	mov	r7,dph
      000717 15 81            [12] 2351 	dec	sp
      000719 15 81            [12] 2352 	dec	sp
      00071B 15 81            [12] 2353 	dec	sp
      00071D EE               [12] 2354 	mov	a,r6
      00071E 4F               [12] 2355 	orl	a,r7
      00071F 70 12            [24] 2356 	jnz	00107$
                                   2357 ;	/opt/contiki/core/net/mac/nullrdc.c:286: !packetbuf_holds_broadcast()) {
      000721 78r00            [12] 2358 	mov	r0,#_packetbuf_holds_broadcast
      000723 79s00            [12] 2359 	mov	r1,#(_packetbuf_holds_broadcast >> 8)
      000725 7As00            [12] 2360 	mov	r2,#(_packetbuf_holds_broadcast >> 16)
      000727 12r00r00         [24] 2361 	lcall	__sdcc_banked_call
      00072A E5 82            [12] 2362 	mov	a,dpl
      00072C 85 83 F0         [24] 2363 	mov	b,dph
      00072F 45 F0            [12] 2364 	orl	a,b
      000731 60 53            [24] 2365 	jz	00116$
      000733                       2366 00107$:
                                   2367 ;	/opt/contiki/core/net/mac/nullrdc.c:295: duplicate = mac_sequence_is_duplicate();
      000733 78r00            [12] 2368 	mov	r0,#_mac_sequence_is_duplicate
      000735 79s00            [12] 2369 	mov	r1,#(_mac_sequence_is_duplicate >> 8)
      000737 7As00            [12] 2370 	mov	r2,#(_mac_sequence_is_duplicate >> 16)
      000739 12r00r00         [24] 2371 	lcall	__sdcc_banked_call
      00073C AE 82            [24] 2372 	mov	r6,dpl
      00073E AF 83            [24] 2373 	mov	r7,dph
      000740 8E 04            [24] 2374 	mov	ar4,r6
      000742 8F 05            [24] 2375 	mov	ar5,r7
                                   2376 ;	/opt/contiki/core/net/mac/nullrdc.c:296: if(duplicate) {
      000744 EE               [12] 2377 	mov	a,r6
      000745 4F               [12] 2378 	orl	a,r7
      000746 70 11            [24] 2379 	jnz	00103$
                                   2380 ;	/opt/contiki/core/net/mac/nullrdc.c:301: mac_sequence_register_seqno();
      000748 C0 05            [24] 2381 	push	ar5
      00074A C0 04            [24] 2382 	push	ar4
      00074C 78r00            [12] 2383 	mov	r0,#_mac_sequence_register_seqno
      00074E 79s00            [12] 2384 	mov	r1,#(_mac_sequence_register_seqno >> 8)
      000750 7As00            [12] 2385 	mov	r2,#(_mac_sequence_register_seqno >> 16)
      000752 12r00r00         [24] 2386 	lcall	__sdcc_banked_call
      000755 D0 04            [24] 2387 	pop	ar4
      000757 D0 05            [24] 2388 	pop	ar5
      000759                       2389 00103$:
                                   2390 ;	/opt/contiki/core/net/mac/nullrdc.c:323: if(!duplicate) {
      000759 EC               [12] 2391 	mov	a,r4
      00075A 4D               [12] 2392 	orl	a,r5
      00075B 70 29            [24] 2393 	jnz	00116$
                                   2394 ;	/opt/contiki/core/net/mac/nullrdc.c:324: NETSTACK_MAC.input();
      00075D 90r00r09         [24] 2395 	mov	dptr,#(_csma_driver + 0x0009)
      000760 E4               [12] 2396 	clr	a
      000761 93               [24] 2397 	movc	a,@a+dptr
      000762 FD               [12] 2398 	mov	r5,a
      000763 A3               [24] 2399 	inc	dptr
      000764 E4               [12] 2400 	clr	a
      000765 93               [24] 2401 	movc	a,@a+dptr
      000766 FE               [12] 2402 	mov	r6,a
      000767 A3               [24] 2403 	inc	dptr
      000768 E4               [12] 2404 	clr	a
      000769 93               [24] 2405 	movc	a,@a+dptr
      00076A FF               [12] 2406 	mov	r7,a
      00076B C0 07            [24] 2407 	push	ar7
      00076D C0 06            [24] 2408 	push	ar6
      00076F C0 05            [24] 2409 	push	ar5
      000771 C0 05            [24] 2410 	push	ar5
      000773 C0 06            [24] 2411 	push	ar6
      000775 C0 07            [24] 2412 	push	ar7
      000777 D0 02            [24] 2413 	pop	ar2
      000779 D0 01            [24] 2414 	pop	ar1
      00077B D0 00            [24] 2415 	pop	ar0
      00077D 12r00r00         [24] 2416 	lcall	__sdcc_banked_call
      000780 D0 05            [24] 2417 	pop	ar5
      000782 D0 06            [24] 2418 	pop	ar6
      000784 D0 07            [24] 2419 	pop	ar7
      000786                       2420 00116$:
      000786 02r00r00         [24] 2421 	ljmp	__sdcc_banked_ret
                                   2422 ;------------------------------------------------------------
                                   2423 ;Allocation info for local variables in function 'on'
                                   2424 ;------------------------------------------------------------
                                   2425 ;	/opt/contiki/core/net/mac/nullrdc.c:330: on(void)
                                   2426 ;	-----------------------------------------
                                   2427 ;	 function on
                                   2428 ;	-----------------------------------------
      000789                       2429 _on:
                                   2430 ;	/opt/contiki/core/net/mac/nullrdc.c:332: return NETSTACK_RADIO.on();
      000789 90r00r18         [24] 2431 	mov	dptr,#(_cc2530_rf_driver + 0x0018)
      00078C E4               [12] 2432 	clr	a
      00078D 93               [24] 2433 	movc	a,@a+dptr
      00078E FD               [12] 2434 	mov	r5,a
      00078F A3               [24] 2435 	inc	dptr
      000790 E4               [12] 2436 	clr	a
      000791 93               [24] 2437 	movc	a,@a+dptr
      000792 FE               [12] 2438 	mov	r6,a
      000793 A3               [24] 2439 	inc	dptr
      000794 E4               [12] 2440 	clr	a
      000795 93               [24] 2441 	movc	a,@a+dptr
      000796 FF               [12] 2442 	mov	r7,a
      000797 C0 07            [24] 2443 	push	ar7
      000799 C0 05            [24] 2444 	push	ar5
      00079B C0 06            [24] 2445 	push	ar6
      00079D C0 07            [24] 2446 	push	ar7
      00079F D0 02            [24] 2447 	pop	ar2
      0007A1 D0 01            [24] 2448 	pop	ar1
      0007A3 D0 00            [24] 2449 	pop	ar0
      0007A5 12r00r00         [24] 2450 	lcall	__sdcc_banked_call
      0007A8 AD 82            [24] 2451 	mov	r5,dpl
      0007AA AE 83            [24] 2452 	mov	r6,dph
      0007AC D0 07            [24] 2453 	pop	ar7
      0007AE 8D 82            [24] 2454 	mov	dpl,r5
      0007B0 8E 83            [24] 2455 	mov	dph,r6
      0007B2 02r00r00         [24] 2456 	ljmp	__sdcc_banked_ret
                                   2457 ;------------------------------------------------------------
                                   2458 ;Allocation info for local variables in function 'off'
                                   2459 ;------------------------------------------------------------
                                   2460 ;keep_radio_on             Allocated to registers r6 r7 
                                   2461 ;------------------------------------------------------------
                                   2462 ;	/opt/contiki/core/net/mac/nullrdc.c:336: off(int keep_radio_on)
                                   2463 ;	-----------------------------------------
                                   2464 ;	 function off
                                   2465 ;	-----------------------------------------
      0007B5                       2466 _off:
      0007B5 AE 82            [24] 2467 	mov	r6,dpl
      0007B7 AF 83            [24] 2468 	mov	r7,dph
                                   2469 ;	/opt/contiki/core/net/mac/nullrdc.c:338: if(keep_radio_on) {
      0007B9 EE               [12] 2470 	mov	a,r6
      0007BA 4F               [12] 2471 	orl	a,r7
      0007BB 60 2B            [24] 2472 	jz	00102$
                                   2473 ;	/opt/contiki/core/net/mac/nullrdc.c:339: return NETSTACK_RADIO.on();
      0007BD 90r00r18         [24] 2474 	mov	dptr,#(_cc2530_rf_driver + 0x0018)
      0007C0 E4               [12] 2475 	clr	a
      0007C1 93               [24] 2476 	movc	a,@a+dptr
      0007C2 FD               [12] 2477 	mov	r5,a
      0007C3 A3               [24] 2478 	inc	dptr
      0007C4 E4               [12] 2479 	clr	a
      0007C5 93               [24] 2480 	movc	a,@a+dptr
      0007C6 FE               [12] 2481 	mov	r6,a
      0007C7 A3               [24] 2482 	inc	dptr
      0007C8 E4               [12] 2483 	clr	a
      0007C9 93               [24] 2484 	movc	a,@a+dptr
      0007CA FF               [12] 2485 	mov	r7,a
      0007CB C0 07            [24] 2486 	push	ar7
      0007CD C0 05            [24] 2487 	push	ar5
      0007CF C0 06            [24] 2488 	push	ar6
      0007D1 C0 07            [24] 2489 	push	ar7
      0007D3 D0 02            [24] 2490 	pop	ar2
      0007D5 D0 01            [24] 2491 	pop	ar1
      0007D7 D0 00            [24] 2492 	pop	ar0
      0007D9 12r00r00         [24] 2493 	lcall	__sdcc_banked_call
      0007DC AD 82            [24] 2494 	mov	r5,dpl
      0007DE AE 83            [24] 2495 	mov	r6,dph
      0007E0 D0 07            [24] 2496 	pop	ar7
      0007E2 8D 82            [24] 2497 	mov	dpl,r5
      0007E4 8E 83            [24] 2498 	mov	dph,r6
      0007E6 80 29            [24] 2499 	sjmp	00104$
      0007E8                       2500 00102$:
                                   2501 ;	/opt/contiki/core/net/mac/nullrdc.c:341: return NETSTACK_RADIO.off();
      0007E8 90r00r1B         [24] 2502 	mov	dptr,#(_cc2530_rf_driver + 0x001b)
      0007EB E4               [12] 2503 	clr	a
      0007EC 93               [24] 2504 	movc	a,@a+dptr
      0007ED FD               [12] 2505 	mov	r5,a
      0007EE A3               [24] 2506 	inc	dptr
      0007EF E4               [12] 2507 	clr	a
      0007F0 93               [24] 2508 	movc	a,@a+dptr
      0007F1 FE               [12] 2509 	mov	r6,a
      0007F2 A3               [24] 2510 	inc	dptr
      0007F3 E4               [12] 2511 	clr	a
      0007F4 93               [24] 2512 	movc	a,@a+dptr
      0007F5 FF               [12] 2513 	mov	r7,a
      0007F6 C0 07            [24] 2514 	push	ar7
      0007F8 C0 05            [24] 2515 	push	ar5
      0007FA C0 06            [24] 2516 	push	ar6
      0007FC C0 07            [24] 2517 	push	ar7
      0007FE D0 02            [24] 2518 	pop	ar2
      000800 D0 01            [24] 2519 	pop	ar1
      000802 D0 00            [24] 2520 	pop	ar0
      000804 12r00r00         [24] 2521 	lcall	__sdcc_banked_call
      000807 AD 82            [24] 2522 	mov	r5,dpl
      000809 AE 83            [24] 2523 	mov	r6,dph
      00080B D0 07            [24] 2524 	pop	ar7
      00080D 8D 82            [24] 2525 	mov	dpl,r5
      00080F 8E 83            [24] 2526 	mov	dph,r6
      000811                       2527 00104$:
      000811 02r00r00         [24] 2528 	ljmp	__sdcc_banked_ret
                                   2529 ;------------------------------------------------------------
                                   2530 ;Allocation info for local variables in function 'channel_check_interval'
                                   2531 ;------------------------------------------------------------
                                   2532 ;	/opt/contiki/core/net/mac/nullrdc.c:346: channel_check_interval(void)
                                   2533 ;	-----------------------------------------
                                   2534 ;	 function channel_check_interval
                                   2535 ;	-----------------------------------------
      000814                       2536 _channel_check_interval:
                                   2537 ;	/opt/contiki/core/net/mac/nullrdc.c:348: return 0;
      000814 90 00 00         [24] 2538 	mov	dptr,#0x0000
      000817 02r00r00         [24] 2539 	ljmp	__sdcc_banked_ret
                                   2540 ;------------------------------------------------------------
                                   2541 ;Allocation info for local variables in function 'init'
                                   2542 ;------------------------------------------------------------
                                   2543 ;	/opt/contiki/core/net/mac/nullrdc.c:352: init(void)
                                   2544 ;	-----------------------------------------
                                   2545 ;	 function init
                                   2546 ;	-----------------------------------------
      00081A                       2547 _init:
                                   2548 ;	/opt/contiki/core/net/mac/nullrdc.c:354: on();
      00081A 78r89            [12] 2549 	mov	r0,#_on
      00081C 79s07            [12] 2550 	mov	r1,#(_on >> 8)
      00081E 7As00            [12] 2551 	mov	r2,#(_on >> 16)
      000820 12r00r00         [24] 2552 	lcall	__sdcc_banked_call
      000823 02r00r00         [24] 2553 	ljmp	__sdcc_banked_ret
                                   2554 	.area CSEG    (CODE)
                                   2555 	.area CONST   (CODE)
      000000                       2556 _nullrdc_driver:
      000000r18s00 80              2557 	.byte __str_0, (__str_0 >> 8),#0x80
      000003r1As08s00              2558 	.byte _init, (_init >> 8), (_init >> 16)
      000006rC0s05s00              2559 	.byte _send_packet, (_send_packet >> 8), (_send_packet >> 16)
      000009rEEs05s00              2560 	.byte _send_list, (_send_list >> 8), (_send_list >> 16)
      00000CrA5s06s00              2561 	.byte _packet_input, (_packet_input >> 8), (_packet_input >> 16)
      00000Fr89s07s00              2562 	.byte _on, (_on >> 8), (_on >> 16)
      000012rB5s07s00              2563 	.byte _off, (_off >> 8), (_off >> 16)
      000015r14s08s00              2564 	.byte _channel_check_interval, (_channel_check_interval >> 8), (_channel_check_interval >> 16)
      000018                       2565 __str_0:
      000018 6E 75 6C 6C 72 64 63  2566 	.ascii "nullrdc"
      00001F 00                    2567 	.db 0x00
                                   2568 	.area XINIT   (CODE)
                                   2569 	.area CABS    (ABS,CODE)
