                                      1 ;--------------------------------------------------------
                                      2 ; File Created by SDCC : free open source ANSI-C Compiler
                                      3 ; Version 3.5.5 #9380 (Linux)
                                      4 ; This file was generated Wed Nov 18 02:57:33 2015
                                      5 ;--------------------------------------------------------
                                      6 	.module tcpip
                                      7 	.optsdcc -mmcs51 --model-huge
                                      8 	
                                      9 ;--------------------------------------------------------
                                     10 ; Public variables in this module
                                     11 ;--------------------------------------------------------
                                     12 	.globl _rpl_update_header_final
                                     13 	.globl _rpl_repair_root
                                     14 	.globl _rpl_init
                                     15 	.globl _uip_ds6_addr_lookup
                                     16 	.globl _uip_ds6_is_addr_onlink
                                     17 	.globl _uip_ds6_periodic
                                     18 	.globl _uip_ds6_nbr_lookup
                                     19 	.globl _uip_ds6_nbr_get_ll
                                     20 	.globl _uip_ds6_nbr_add
                                     21 	.globl _uip_ds6_route_nexthop
                                     22 	.globl _uip_ds6_route_rm
                                     23 	.globl _uip_ds6_route_lookup
                                     24 	.globl _uip_ds6_defrt_choose
                                     25 	.globl _uip_nd6_ns_output
                                     26 	.globl _stimer_set
                                     27 	.globl _uip_process
                                     28 	.globl _uip_udp_new
                                     29 	.globl _uip_init
                                     30 	.globl _etimer_expired
                                     31 	.globl _etimer_set
                                     32 	.globl _process_alloc_event
                                     33 	.globl _process_post_synch
                                     34 	.globl _process_post
                                     35 	.globl _ACTIVE
                                     36 	.globl _TX_BYTE
                                     37 	.globl _RX_BYTE
                                     38 	.globl _ERR
                                     39 	.globl _FE
                                     40 	.globl _SLAVE
                                     41 	.globl _RE
                                     42 	.globl _MODE
                                     43 	.globl _T3OVFIF
                                     44 	.globl _T3CH0IF
                                     45 	.globl _T3CH1IF
                                     46 	.globl _T4OVFIF
                                     47 	.globl _T4CH0IF
                                     48 	.globl _T4CH1IF
                                     49 	.globl _OVFIM
                                     50 	.globl _B_0
                                     51 	.globl _B_1
                                     52 	.globl _B_2
                                     53 	.globl _B_3
                                     54 	.globl _B_4
                                     55 	.globl _B_5
                                     56 	.globl _B_6
                                     57 	.globl _B_7
                                     58 	.globl _P2IF
                                     59 	.globl _UTX0IF
                                     60 	.globl _UTX1IF
                                     61 	.globl _P1IF
                                     62 	.globl _WDTIF
                                     63 	.globl _ACC_0
                                     64 	.globl _ACC_1
                                     65 	.globl _ACC_2
                                     66 	.globl _ACC_3
                                     67 	.globl _ACC_4
                                     68 	.globl _ACC_5
                                     69 	.globl _ACC_6
                                     70 	.globl _ACC_7
                                     71 	.globl _P
                                     72 	.globl _F1
                                     73 	.globl _OV
                                     74 	.globl _RS0
                                     75 	.globl _RS1
                                     76 	.globl _F0
                                     77 	.globl _AC
                                     78 	.globl _CY
                                     79 	.globl _DMAIF
                                     80 	.globl _T1IF
                                     81 	.globl _T2IF
                                     82 	.globl _T3IF
                                     83 	.globl _T4IF
                                     84 	.globl _P0IF
                                     85 	.globl _STIF
                                     86 	.globl _DMAIE
                                     87 	.globl _T1IE
                                     88 	.globl _T2IE
                                     89 	.globl _T3IE
                                     90 	.globl _T4IE
                                     91 	.globl _P0IE
                                     92 	.globl _RFERRIE
                                     93 	.globl _ADCIE
                                     94 	.globl _URX0IE
                                     95 	.globl _URX1IE
                                     96 	.globl _ENCIE
                                     97 	.globl _STIE
                                     98 	.globl _EA
                                     99 	.globl _P2_0
                                    100 	.globl _P2_1
                                    101 	.globl _P2_2
                                    102 	.globl _P2_3
                                    103 	.globl _P2_4
                                    104 	.globl _P2_5
                                    105 	.globl _P2_6
                                    106 	.globl _P2_7
                                    107 	.globl _ENCIF_0
                                    108 	.globl _ENCIF_1
                                    109 	.globl _P1_0
                                    110 	.globl _P1_1
                                    111 	.globl _P1_2
                                    112 	.globl _P1_3
                                    113 	.globl _P1_4
                                    114 	.globl _P1_5
                                    115 	.globl _P1_6
                                    116 	.globl _P1_7
                                    117 	.globl _IT0
                                    118 	.globl _RFERRIF
                                    119 	.globl _IT1
                                    120 	.globl _URX0IF
                                    121 	.globl _ADCIF
                                    122 	.globl _URX1IF
                                    123 	.globl _P0_0
                                    124 	.globl _P0_1
                                    125 	.globl _P0_2
                                    126 	.globl _P0_3
                                    127 	.globl _P0_4
                                    128 	.globl _P0_5
                                    129 	.globl _P0_6
                                    130 	.globl _P0_7
                                    131 	.globl _WDCTL
                                    132 	.globl _U1GCR
                                    133 	.globl _U1UCR
                                    134 	.globl _U1BAUD
                                    135 	.globl _U1DBUF
                                    136 	.globl _U1CSR
                                    137 	.globl _U0GCR
                                    138 	.globl _U0UCR
                                    139 	.globl _U0BAUD
                                    140 	.globl _U0DBUF
                                    141 	.globl _U0CSR
                                    142 	.globl _TIMIF
                                    143 	.globl _T4CC1
                                    144 	.globl _T4CCTL1
                                    145 	.globl _T4CC0
                                    146 	.globl _T4CCTL0
                                    147 	.globl _T4CTL
                                    148 	.globl _T4CNT
                                    149 	.globl _T3CC1
                                    150 	.globl _T3CCTL1
                                    151 	.globl _T3CC0
                                    152 	.globl _T3CCTL0
                                    153 	.globl _T3CTL
                                    154 	.globl _T3CNT
                                    155 	.globl _T2MSEL
                                    156 	.globl _T2IRQM
                                    157 	.globl _T2MOVF2
                                    158 	.globl _T2MOVF1
                                    159 	.globl _T2MOVF0
                                    160 	.globl _T2M1
                                    161 	.globl _T2M0
                                    162 	.globl _T2IRQF
                                    163 	.globl _T2EVTCFG
                                    164 	.globl _T2CTRL
                                    165 	.globl _T1STAT
                                    166 	.globl _T1CCTL2
                                    167 	.globl _T1CCTL1
                                    168 	.globl _T1CCTL0
                                    169 	.globl _T1CTL
                                    170 	.globl _T1CNTH
                                    171 	.globl _T1CNTL
                                    172 	.globl _T1CC2H
                                    173 	.globl _T1CC2L
                                    174 	.globl _T1CC1H
                                    175 	.globl _T1CC1L
                                    176 	.globl _T1CC0H
                                    177 	.globl _T1CC0L
                                    178 	.globl _CLKCONSTA
                                    179 	.globl _CLKCONCMD
                                    180 	.globl _SLEEPSTA
                                    181 	.globl _SLEEPCMD
                                    182 	.globl _STLOAD
                                    183 	.globl _ST2
                                    184 	.globl _ST1
                                    185 	.globl _ST0
                                    186 	.globl _RFERRF
                                    187 	.globl _RFIRQF0
                                    188 	.globl _RFST
                                    189 	.globl _RFD
                                    190 	.globl _RFIRQF1
                                    191 	.globl _PSBANK
                                    192 	.globl _FMAP
                                    193 	.globl _MEMCTR
                                    194 	.globl __XPAGE
                                    195 	.globl _MPAGE
                                    196 	.globl _PMUX
                                    197 	.globl _P2DIR
                                    198 	.globl _P1DIR
                                    199 	.globl _P0DIR
                                    200 	.globl _P2INP
                                    201 	.globl _P1INP
                                    202 	.globl _P2SEL
                                    203 	.globl _P1SEL
                                    204 	.globl _P0SEL
                                    205 	.globl _APCFG
                                    206 	.globl _PERCFG
                                    207 	.globl _P0INP
                                    208 	.globl _P2IEN
                                    209 	.globl _P1IEN
                                    210 	.globl _P0IEN
                                    211 	.globl _PICTL
                                    212 	.globl _P2IFG
                                    213 	.globl _P1IFG
                                    214 	.globl _P0IFG
                                    215 	.globl _DMAREQ
                                    216 	.globl _DMAARM
                                    217 	.globl _DMA0CFGH
                                    218 	.globl _DMA0CFGL
                                    219 	.globl _DMA1CFGH
                                    220 	.globl _DMA1CFGL
                                    221 	.globl _DMAIRQ
                                    222 	.globl _ENCCS
                                    223 	.globl _ENCDO
                                    224 	.globl _ENCDI
                                    225 	.globl _RNDH
                                    226 	.globl _RNDL
                                    227 	.globl _ADCH
                                    228 	.globl _ADCL
                                    229 	.globl _ADCCON3
                                    230 	.globl _ADCCON2
                                    231 	.globl _ADCCON1
                                    232 	.globl _B
                                    233 	.globl _IRCON2
                                    234 	.globl _ACC
                                    235 	.globl _PSW
                                    236 	.globl _IRCON
                                    237 	.globl _IP1
                                    238 	.globl _IEN1
                                    239 	.globl _IP0
                                    240 	.globl _IEN0
                                    241 	.globl _P2
                                    242 	.globl _S1CON
                                    243 	.globl _IEN2
                                    244 	.globl _S0CON
                                    245 	.globl _DPS
                                    246 	.globl _P1
                                    247 	.globl _TCON
                                    248 	.globl _PCON
                                    249 	.globl _DPH1
                                    250 	.globl _DPL1
                                    251 	.globl _DPH0
                                    252 	.globl _DPL0
                                    253 	.globl _SP
                                    254 	.globl _P0
                                    255 	.globl _tcpip_process
                                    256 	.globl _tcpip_icmp6_event
                                    257 	.globl _tcpip_event
                                    258 	.globl _X_IEEE_ADDR
                                    259 	.globl _X_INFOPAGE
                                    260 	.globl _X_P2DIR
                                    261 	.globl _X_P1DIR
                                    262 	.globl _X_P0DIR
                                    263 	.globl _X_U1GCR
                                    264 	.globl _X_U1UCR
                                    265 	.globl _X_U1BAUD
                                    266 	.globl _X_U1DBUF
                                    267 	.globl _X_U1CSR
                                    268 	.globl _X_P2INP
                                    269 	.globl _X_P1INP
                                    270 	.globl _X_P2SEL
                                    271 	.globl _X_P1SEL
                                    272 	.globl _X_P0SEL
                                    273 	.globl _X_APCFG
                                    274 	.globl _X_PERCFG
                                    275 	.globl _X_T4CC1
                                    276 	.globl _X_T4CCTL1
                                    277 	.globl _X_T4CC0
                                    278 	.globl _X_T4CCTL0
                                    279 	.globl _X_T4CTL
                                    280 	.globl _X_T4CNT
                                    281 	.globl _X_RFIRQF0
                                    282 	.globl _X_T1CCTL2
                                    283 	.globl _X_T1CCTL1
                                    284 	.globl _X_T1CCTL0
                                    285 	.globl _X_T1CTL
                                    286 	.globl _X_T1CNTH
                                    287 	.globl _X_T1CNTL
                                    288 	.globl _X_RFST
                                    289 	.globl _X_T1CC2H
                                    290 	.globl _X_T1CC2L
                                    291 	.globl _X_T1CC1H
                                    292 	.globl _X_T1CC1L
                                    293 	.globl _X_T1CC0H
                                    294 	.globl _X_T1CC0L
                                    295 	.globl _X_RFD
                                    296 	.globl _X_TIMIF
                                    297 	.globl _X_DMAREQ
                                    298 	.globl _X_DMAARM
                                    299 	.globl _X_DMA0CFGH
                                    300 	.globl _X_DMA0CFGL
                                    301 	.globl _X_DMA1CFGH
                                    302 	.globl _X_DMA1CFGL
                                    303 	.globl _X_DMAIRQ
                                    304 	.globl _X_T3CC1
                                    305 	.globl _X_T3CCTL1
                                    306 	.globl _X_T3CC0
                                    307 	.globl _X_T3CCTL0
                                    308 	.globl _X_T3CTL
                                    309 	.globl _X_T3CNT
                                    310 	.globl _X_WDCTL
                                    311 	.globl _X_MEMCTR
                                    312 	.globl _X_CLKCONCMD
                                    313 	.globl _X_U0GCR
                                    314 	.globl _X_U0UCR
                                    315 	.globl _X_T2MSEL
                                    316 	.globl _X_U0BAUD
                                    317 	.globl _X_U0DBUF
                                    318 	.globl _X_RFERRF
                                    319 	.globl _X_SLEEPCMD
                                    320 	.globl _X_RNDH
                                    321 	.globl _X_RNDL
                                    322 	.globl _X_ADCH
                                    323 	.globl _X_ADCL
                                    324 	.globl _X_ADCCON3
                                    325 	.globl _X_ADCCON2
                                    326 	.globl _X_ADCCON1
                                    327 	.globl _X_ENCCS
                                    328 	.globl _X_ENCDO
                                    329 	.globl _X_ENCDI
                                    330 	.globl _X_T1STAT
                                    331 	.globl _X_PMUX
                                    332 	.globl _X_STLOAD
                                    333 	.globl _X_P2IEN
                                    334 	.globl _X_P0IEN
                                    335 	.globl _X_T2IRQM
                                    336 	.globl _X_T2MOVF2
                                    337 	.globl _X_T2MOVF1
                                    338 	.globl _X_T2MOVF0
                                    339 	.globl _X_T2M1
                                    340 	.globl _X_T2M0
                                    341 	.globl _X_T2IRQF
                                    342 	.globl _X_P2
                                    343 	.globl _X_PSBANK
                                    344 	.globl _X_FMAP
                                    345 	.globl _X_CLKCONSTA
                                    346 	.globl _X_SLEEPSTA
                                    347 	.globl _X_T2EVTCFG
                                    348 	.globl _X_ST2
                                    349 	.globl _X_ST1
                                    350 	.globl _X_ST0
                                    351 	.globl _X_T2CTRL
                                    352 	.globl _X__XPAGE
                                    353 	.globl _X_MPAGE
                                    354 	.globl _X_RFIRQF1
                                    355 	.globl _X_P1
                                    356 	.globl _X_P0INP
                                    357 	.globl _X_P1IEN
                                    358 	.globl _X_PICTL
                                    359 	.globl _X_P2IFG
                                    360 	.globl _X_P1IFG
                                    361 	.globl _X_P0IFG
                                    362 	.globl _X_U0CSR
                                    363 	.globl _X_P0
                                    364 	.globl _USBF5
                                    365 	.globl _USBF4
                                    366 	.globl _USBF3
                                    367 	.globl _USBF2
                                    368 	.globl _USBF1
                                    369 	.globl _USBF0
                                    370 	.globl _USBCNTH
                                    371 	.globl _USBCNTL
                                    372 	.globl _USBCNT0
                                    373 	.globl _USBCSOH
                                    374 	.globl _USBCSOL
                                    375 	.globl _USBMAXO
                                    376 	.globl _USBCSIH
                                    377 	.globl _USBCSIL
                                    378 	.globl _USBCS0
                                    379 	.globl _USBMAXI
                                    380 	.globl _USBCTRL
                                    381 	.globl _USBINDEX
                                    382 	.globl _USBFRMH
                                    383 	.globl _USBFRML
                                    384 	.globl _USBCIE
                                    385 	.globl _USBOIE
                                    386 	.globl _USBIIE
                                    387 	.globl _USBCIF
                                    388 	.globl _USBOIF
                                    389 	.globl _USBIIF
                                    390 	.globl _USBPOW
                                    391 	.globl _USBADDR
                                    392 	.globl _CSPT
                                    393 	.globl _CSPZ
                                    394 	.globl _CSPY
                                    395 	.globl _CSPX
                                    396 	.globl _CSPSTAT
                                    397 	.globl _CSPCTRL
                                    398 	.globl _CSPPROG23
                                    399 	.globl _CSPPROG22
                                    400 	.globl _CSPPROG21
                                    401 	.globl _CSPPROG20
                                    402 	.globl _CSPPROG19
                                    403 	.globl _CSPPROG18
                                    404 	.globl _CSPPROG17
                                    405 	.globl _CSPPROG16
                                    406 	.globl _CSPPROG15
                                    407 	.globl _CSPPROG14
                                    408 	.globl _CSPPROG13
                                    409 	.globl _CSPPROG12
                                    410 	.globl _CSPPROG11
                                    411 	.globl _CSPPROG10
                                    412 	.globl _CSPPROG9
                                    413 	.globl _CSPPROG8
                                    414 	.globl _CSPPROG7
                                    415 	.globl _CSPPROG6
                                    416 	.globl _CSPPROG5
                                    417 	.globl _CSPPROG4
                                    418 	.globl _CSPPROG3
                                    419 	.globl _CSPPROG2
                                    420 	.globl _CSPPROG1
                                    421 	.globl _CSPPROG0
                                    422 	.globl _RFC_OBS_CTRL2
                                    423 	.globl _RFC_OBS_CTRL1
                                    424 	.globl _RFC_OBS_CTRL0
                                    425 	.globl _TXFILTCFG
                                    426 	.globl _PTEST1
                                    427 	.globl _PTEST0
                                    428 	.globl _ATEST
                                    429 	.globl _DACTEST2
                                    430 	.globl _DACTEST1
                                    431 	.globl _DACTEST0
                                    432 	.globl _MDMTEST1
                                    433 	.globl _MDMTEST0
                                    434 	.globl _ADCTEST2
                                    435 	.globl _ADCTEST1
                                    436 	.globl _ADCTEST0
                                    437 	.globl _AGCCTRL3
                                    438 	.globl _AGCCTRL2
                                    439 	.globl _AGCCTRL1
                                    440 	.globl _AGCCTRL0
                                    441 	.globl _FSCAL3
                                    442 	.globl _FSCAL2
                                    443 	.globl _FSCAL1
                                    444 	.globl _FSCAL0
                                    445 	.globl _FSCTRL
                                    446 	.globl _RXCTRL
                                    447 	.globl _FREQEST
                                    448 	.globl _MDMCTRL1
                                    449 	.globl _MDMCTRL0
                                    450 	.globl _RFRND
                                    451 	.globl _RFERRM
                                    452 	.globl _RFIRQM1
                                    453 	.globl _RFIRQM0
                                    454 	.globl _TXLAST_PTR
                                    455 	.globl _TXFIRST_PTR
                                    456 	.globl _RXP1_PTR
                                    457 	.globl _RXLAST_PTR
                                    458 	.globl _RXFIRST_PTR
                                    459 	.globl _TXFIFOCNT
                                    460 	.globl _RXFIFOCNT
                                    461 	.globl _RXFIRST
                                    462 	.globl _RSSISTAT
                                    463 	.globl _RSSI
                                    464 	.globl _CCACTRL1
                                    465 	.globl _CCACTRL0
                                    466 	.globl _FSMCTRL
                                    467 	.globl _FIFOPCTRL
                                    468 	.globl _FSMSTAT1
                                    469 	.globl _FSMSTAT0
                                    470 	.globl _TXCTRL
                                    471 	.globl _TXPOWER
                                    472 	.globl _FREQCTRL
                                    473 	.globl _FREQTUNE
                                    474 	.globl _RXMASKCLR
                                    475 	.globl _RXMASKSET
                                    476 	.globl _RXENABLE
                                    477 	.globl _FRMCTRL1
                                    478 	.globl _FRMCTRL0
                                    479 	.globl _SRCEXTEN2
                                    480 	.globl _SRCEXTEN1
                                    481 	.globl _SRCEXTEN0
                                    482 	.globl _SRCSHORTEN2
                                    483 	.globl _SRCSHORTEN1
                                    484 	.globl _SRCSHORTEN0
                                    485 	.globl _SRCMATCH
                                    486 	.globl _FRMFILT1
                                    487 	.globl _FRMFILT0
                                    488 	.globl _SHORT_ADDR1
                                    489 	.globl _SHORT_ADDR0
                                    490 	.globl _PAN_ID1
                                    491 	.globl _PAN_ID0
                                    492 	.globl _EXT_ADDR7
                                    493 	.globl _EXT_ADDR6
                                    494 	.globl _EXT_ADDR5
                                    495 	.globl _EXT_ADDR4
                                    496 	.globl _EXT_ADDR3
                                    497 	.globl _EXT_ADDR2
                                    498 	.globl _EXT_ADDR1
                                    499 	.globl _EXT_ADDR0
                                    500 	.globl _SRCSHORTPENDEN2
                                    501 	.globl _SRCSHORTPENDEN1
                                    502 	.globl _SRCSHORTPENDEN0
                                    503 	.globl _SRCEXTPENDEN2
                                    504 	.globl _SRCEXTPENDEN1
                                    505 	.globl _SRCEXTPENDEN0
                                    506 	.globl _SRCRESINDEX
                                    507 	.globl _SRCRESMASK2
                                    508 	.globl _SRCRESMASK1
                                    509 	.globl _SRCRESMASK0
                                    510 	.globl _SRC_ADDR_TABLE
                                    511 	.globl _TXFIFO
                                    512 	.globl _RXFIFO
                                    513 	.globl _RFCORE_RAM
                                    514 	.globl _CMPCTL
                                    515 	.globl _OPAMPS
                                    516 	.globl _OPAMPC
                                    517 	.globl _STCV2
                                    518 	.globl _STCV1
                                    519 	.globl _STCV0
                                    520 	.globl _STCS
                                    521 	.globl _STCC
                                    522 	.globl _T1CC4H
                                    523 	.globl _T1CC4L
                                    524 	.globl _T1CC3H
                                    525 	.globl _T1CC3L
                                    526 	.globl _XX_T1CC2H
                                    527 	.globl _XX_T1CC2L
                                    528 	.globl _XX_T1CC1H
                                    529 	.globl _XX_T1CC1L
                                    530 	.globl _XX_T1CC0H
                                    531 	.globl _XX_T1CC0L
                                    532 	.globl _T1CCTL4
                                    533 	.globl _T1CCTL3
                                    534 	.globl _XX_T1CCTL2
                                    535 	.globl _XX_T1CCTL1
                                    536 	.globl _XX_T1CCTL0
                                    537 	.globl _CLD
                                    538 	.globl _IRCTL
                                    539 	.globl _CHIPINFO1
                                    540 	.globl _CHIPINFO0
                                    541 	.globl _FWDATA
                                    542 	.globl _FADDRH
                                    543 	.globl _FADDRL
                                    544 	.globl _FCTL
                                    545 	.globl _IVCTRL
                                    546 	.globl _BATTMON
                                    547 	.globl _SRCRC
                                    548 	.globl _DBGDATA
                                    549 	.globl _TESTREG0
                                    550 	.globl _CHIPID
                                    551 	.globl _CHVER
                                    552 	.globl _OBSSEL5
                                    553 	.globl _OBSSEL4
                                    554 	.globl _OBSSEL3
                                    555 	.globl _OBSSEL2
                                    556 	.globl _OBSSEL1
                                    557 	.globl _OBSSEL0
                                    558 	.globl _I2CIO
                                    559 	.globl _I2CWC
                                    560 	.globl _I2CADDR
                                    561 	.globl _I2CDATA
                                    562 	.globl _I2CSTAT
                                    563 	.globl _I2CCFG
                                    564 	.globl _OPAMPMC
                                    565 	.globl _MONMUX
                                    566 	.globl _tcpip_output
                                    567 	.globl _tcpip_set_outputfunc
                                    568 	.globl _udp_attach
                                    569 	.globl _udp_new
                                    570 	.globl _udp_broadcast_new
                                    571 	.globl _icmp6_new
                                    572 	.globl _tcpip_icmp6_call
                                    573 	.globl _tcpip_input
                                    574 	.globl _tcpip_ipv6_output
                                    575 	.globl _tcpip_poll_udp
                                    576 	.globl _tcpip_uipcall
                                    577 ;--------------------------------------------------------
                                    578 ; special function registers
                                    579 ;--------------------------------------------------------
                                    580 	.area RSEG    (ABS,DATA)
      000000                        581 	.org 0x0000
                           000080   582 _P0	=	0x0080
                           000081   583 _SP	=	0x0081
                           000082   584 _DPL0	=	0x0082
                           000083   585 _DPH0	=	0x0083
                           000084   586 _DPL1	=	0x0084
                           000085   587 _DPH1	=	0x0085
                           000087   588 _PCON	=	0x0087
                           000088   589 _TCON	=	0x0088
                           000090   590 _P1	=	0x0090
                           000092   591 _DPS	=	0x0092
                           000098   592 _S0CON	=	0x0098
                           00009A   593 _IEN2	=	0x009a
                           00009B   594 _S1CON	=	0x009b
                           0000A0   595 _P2	=	0x00a0
                           0000A8   596 _IEN0	=	0x00a8
                           0000A9   597 _IP0	=	0x00a9
                           0000B8   598 _IEN1	=	0x00b8
                           0000B9   599 _IP1	=	0x00b9
                           0000C0   600 _IRCON	=	0x00c0
                           0000D0   601 _PSW	=	0x00d0
                           0000E0   602 _ACC	=	0x00e0
                           0000E8   603 _IRCON2	=	0x00e8
                           0000F0   604 _B	=	0x00f0
                           0000B4   605 _ADCCON1	=	0x00b4
                           0000B5   606 _ADCCON2	=	0x00b5
                           0000B6   607 _ADCCON3	=	0x00b6
                           0000BA   608 _ADCL	=	0x00ba
                           0000BB   609 _ADCH	=	0x00bb
                           0000BC   610 _RNDL	=	0x00bc
                           0000BD   611 _RNDH	=	0x00bd
                           0000B1   612 _ENCDI	=	0x00b1
                           0000B2   613 _ENCDO	=	0x00b2
                           0000B3   614 _ENCCS	=	0x00b3
                           0000D1   615 _DMAIRQ	=	0x00d1
                           0000D2   616 _DMA1CFGL	=	0x00d2
                           0000D3   617 _DMA1CFGH	=	0x00d3
                           0000D4   618 _DMA0CFGL	=	0x00d4
                           0000D5   619 _DMA0CFGH	=	0x00d5
                           0000D6   620 _DMAARM	=	0x00d6
                           0000D7   621 _DMAREQ	=	0x00d7
                           000089   622 _P0IFG	=	0x0089
                           00008A   623 _P1IFG	=	0x008a
                           00008B   624 _P2IFG	=	0x008b
                           00008C   625 _PICTL	=	0x008c
                           0000AB   626 _P0IEN	=	0x00ab
                           00008D   627 _P1IEN	=	0x008d
                           0000AC   628 _P2IEN	=	0x00ac
                           00008F   629 _P0INP	=	0x008f
                           0000F1   630 _PERCFG	=	0x00f1
                           0000F2   631 _APCFG	=	0x00f2
                           0000F3   632 _P0SEL	=	0x00f3
                           0000F4   633 _P1SEL	=	0x00f4
                           0000F5   634 _P2SEL	=	0x00f5
                           0000F6   635 _P1INP	=	0x00f6
                           0000F7   636 _P2INP	=	0x00f7
                           0000FD   637 _P0DIR	=	0x00fd
                           0000FE   638 _P1DIR	=	0x00fe
                           0000FF   639 _P2DIR	=	0x00ff
                           0000AE   640 _PMUX	=	0x00ae
                           000093   641 _MPAGE	=	0x0093
                           000093   642 __XPAGE	=	0x0093
                           0000C7   643 _MEMCTR	=	0x00c7
                           00009F   644 _FMAP	=	0x009f
                           00009F   645 _PSBANK	=	0x009f
                           000091   646 _RFIRQF1	=	0x0091
                           0000D9   647 _RFD	=	0x00d9
                           0000E1   648 _RFST	=	0x00e1
                           0000E9   649 _RFIRQF0	=	0x00e9
                           0000BF   650 _RFERRF	=	0x00bf
                           000095   651 _ST0	=	0x0095
                           000096   652 _ST1	=	0x0096
                           000097   653 _ST2	=	0x0097
                           0000AD   654 _STLOAD	=	0x00ad
                           0000BE   655 _SLEEPCMD	=	0x00be
                           00009D   656 _SLEEPSTA	=	0x009d
                           0000C6   657 _CLKCONCMD	=	0x00c6
                           00009E   658 _CLKCONSTA	=	0x009e
                           0000DA   659 _T1CC0L	=	0x00da
                           0000DB   660 _T1CC0H	=	0x00db
                           0000DC   661 _T1CC1L	=	0x00dc
                           0000DD   662 _T1CC1H	=	0x00dd
                           0000DE   663 _T1CC2L	=	0x00de
                           0000DF   664 _T1CC2H	=	0x00df
                           0000E2   665 _T1CNTL	=	0x00e2
                           0000E3   666 _T1CNTH	=	0x00e3
                           0000E4   667 _T1CTL	=	0x00e4
                           0000E5   668 _T1CCTL0	=	0x00e5
                           0000E6   669 _T1CCTL1	=	0x00e6
                           0000E7   670 _T1CCTL2	=	0x00e7
                           0000AF   671 _T1STAT	=	0x00af
                           000094   672 _T2CTRL	=	0x0094
                           00009C   673 _T2EVTCFG	=	0x009c
                           0000A1   674 _T2IRQF	=	0x00a1
                           0000A2   675 _T2M0	=	0x00a2
                           0000A3   676 _T2M1	=	0x00a3
                           0000A4   677 _T2MOVF0	=	0x00a4
                           0000A5   678 _T2MOVF1	=	0x00a5
                           0000A6   679 _T2MOVF2	=	0x00a6
                           0000A7   680 _T2IRQM	=	0x00a7
                           0000C3   681 _T2MSEL	=	0x00c3
                           0000CA   682 _T3CNT	=	0x00ca
                           0000CB   683 _T3CTL	=	0x00cb
                           0000CC   684 _T3CCTL0	=	0x00cc
                           0000CD   685 _T3CC0	=	0x00cd
                           0000CE   686 _T3CCTL1	=	0x00ce
                           0000CF   687 _T3CC1	=	0x00cf
                           0000EA   688 _T4CNT	=	0x00ea
                           0000EB   689 _T4CTL	=	0x00eb
                           0000EC   690 _T4CCTL0	=	0x00ec
                           0000ED   691 _T4CC0	=	0x00ed
                           0000EE   692 _T4CCTL1	=	0x00ee
                           0000EF   693 _T4CC1	=	0x00ef
                           0000D8   694 _TIMIF	=	0x00d8
                           000086   695 _U0CSR	=	0x0086
                           0000C1   696 _U0DBUF	=	0x00c1
                           0000C2   697 _U0BAUD	=	0x00c2
                           0000C4   698 _U0UCR	=	0x00c4
                           0000C5   699 _U0GCR	=	0x00c5
                           0000F8   700 _U1CSR	=	0x00f8
                           0000F9   701 _U1DBUF	=	0x00f9
                           0000FA   702 _U1BAUD	=	0x00fa
                           0000FB   703 _U1UCR	=	0x00fb
                           0000FC   704 _U1GCR	=	0x00fc
                           0000C9   705 _WDCTL	=	0x00c9
                                    706 ;--------------------------------------------------------
                                    707 ; special function bits
                                    708 ;--------------------------------------------------------
                                    709 	.area RSEG    (ABS,DATA)
      000000                        710 	.org 0x0000
                           000087   711 _P0_7	=	0x0087
                           000086   712 _P0_6	=	0x0086
                           000085   713 _P0_5	=	0x0085
                           000084   714 _P0_4	=	0x0084
                           000083   715 _P0_3	=	0x0083
                           000082   716 _P0_2	=	0x0082
                           000081   717 _P0_1	=	0x0081
                           000080   718 _P0_0	=	0x0080
                           00008F   719 _URX1IF	=	0x008f
                           00008D   720 _ADCIF	=	0x008d
                           00008B   721 _URX0IF	=	0x008b
                           00008A   722 _IT1	=	0x008a
                           000089   723 _RFERRIF	=	0x0089
                           000088   724 _IT0	=	0x0088
                           000097   725 _P1_7	=	0x0097
                           000096   726 _P1_6	=	0x0096
                           000095   727 _P1_5	=	0x0095
                           000094   728 _P1_4	=	0x0094
                           000093   729 _P1_3	=	0x0093
                           000092   730 _P1_2	=	0x0092
                           000091   731 _P1_1	=	0x0091
                           000090   732 _P1_0	=	0x0090
                           000099   733 _ENCIF_1	=	0x0099
                           000098   734 _ENCIF_0	=	0x0098
                           0000A7   735 _P2_7	=	0x00a7
                           0000A6   736 _P2_6	=	0x00a6
                           0000A5   737 _P2_5	=	0x00a5
                           0000A4   738 _P2_4	=	0x00a4
                           0000A3   739 _P2_3	=	0x00a3
                           0000A2   740 _P2_2	=	0x00a2
                           0000A1   741 _P2_1	=	0x00a1
                           0000A0   742 _P2_0	=	0x00a0
                           0000AF   743 _EA	=	0x00af
                           0000AD   744 _STIE	=	0x00ad
                           0000AC   745 _ENCIE	=	0x00ac
                           0000AB   746 _URX1IE	=	0x00ab
                           0000AA   747 _URX0IE	=	0x00aa
                           0000A9   748 _ADCIE	=	0x00a9
                           0000A8   749 _RFERRIE	=	0x00a8
                           0000BD   750 _P0IE	=	0x00bd
                           0000BC   751 _T4IE	=	0x00bc
                           0000BB   752 _T3IE	=	0x00bb
                           0000BA   753 _T2IE	=	0x00ba
                           0000B9   754 _T1IE	=	0x00b9
                           0000B8   755 _DMAIE	=	0x00b8
                           0000C7   756 _STIF	=	0x00c7
                           0000C5   757 _P0IF	=	0x00c5
                           0000C4   758 _T4IF	=	0x00c4
                           0000C3   759 _T3IF	=	0x00c3
                           0000C2   760 _T2IF	=	0x00c2
                           0000C1   761 _T1IF	=	0x00c1
                           0000C0   762 _DMAIF	=	0x00c0
                           0000D7   763 _CY	=	0x00d7
                           0000D6   764 _AC	=	0x00d6
                           0000D5   765 _F0	=	0x00d5
                           0000D4   766 _RS1	=	0x00d4
                           0000D3   767 _RS0	=	0x00d3
                           0000D2   768 _OV	=	0x00d2
                           0000D1   769 _F1	=	0x00d1
                           0000D0   770 _P	=	0x00d0
                           0000E7   771 _ACC_7	=	0x00e7
                           0000E6   772 _ACC_6	=	0x00e6
                           0000E5   773 _ACC_5	=	0x00e5
                           0000E4   774 _ACC_4	=	0x00e4
                           0000E3   775 _ACC_3	=	0x00e3
                           0000E2   776 _ACC_2	=	0x00e2
                           0000E1   777 _ACC_1	=	0x00e1
                           0000E0   778 _ACC_0	=	0x00e0
                           0000EC   779 _WDTIF	=	0x00ec
                           0000EB   780 _P1IF	=	0x00eb
                           0000EA   781 _UTX1IF	=	0x00ea
                           0000E9   782 _UTX0IF	=	0x00e9
                           0000E8   783 _P2IF	=	0x00e8
                           0000F7   784 _B_7	=	0x00f7
                           0000F6   785 _B_6	=	0x00f6
                           0000F5   786 _B_5	=	0x00f5
                           0000F4   787 _B_4	=	0x00f4
                           0000F3   788 _B_3	=	0x00f3
                           0000F2   789 _B_2	=	0x00f2
                           0000F1   790 _B_1	=	0x00f1
                           0000F0   791 _B_0	=	0x00f0
                           0000DE   792 _OVFIM	=	0x00de
                           0000DD   793 _T4CH1IF	=	0x00dd
                           0000DC   794 _T4CH0IF	=	0x00dc
                           0000DB   795 _T4OVFIF	=	0x00db
                           0000DA   796 _T3CH1IF	=	0x00da
                           0000D9   797 _T3CH0IF	=	0x00d9
                           0000D8   798 _T3OVFIF	=	0x00d8
                           0000FF   799 _MODE	=	0x00ff
                           0000FE   800 _RE	=	0x00fe
                           0000FD   801 _SLAVE	=	0x00fd
                           0000FC   802 _FE	=	0x00fc
                           0000FB   803 _ERR	=	0x00fb
                           0000FA   804 _RX_BYTE	=	0x00fa
                           0000F9   805 _TX_BYTE	=	0x00f9
                           0000F8   806 _ACTIVE	=	0x00f8
                                    807 ;--------------------------------------------------------
                                    808 ; overlayable register banks
                                    809 ;--------------------------------------------------------
                                    810 	.area REG_BANK_0	(REL,OVR,DATA)
      000000                        811 	.ds 8
                                    812 ;--------------------------------------------------------
                                    813 ; internal ram data
                                    814 ;--------------------------------------------------------
                                    815 	.area DSEG    (DATA)
                                    816 ;--------------------------------------------------------
                                    817 ; overlayable items in internal ram 
                                    818 ;--------------------------------------------------------
                                    819 ;--------------------------------------------------------
                                    820 ; indirectly addressable internal ram data
                                    821 ;--------------------------------------------------------
                                    822 	.area ISEG    (DATA)
                                    823 ;--------------------------------------------------------
                                    824 ; absolute internal ram data
                                    825 ;--------------------------------------------------------
                                    826 	.area IABS    (ABS,DATA)
                                    827 	.area IABS    (ABS,DATA)
                                    828 ;--------------------------------------------------------
                                    829 ; bit data
                                    830 ;--------------------------------------------------------
                                    831 	.area BSEG    (BIT)
                                    832 ;--------------------------------------------------------
                                    833 ; paged external ram data
                                    834 ;--------------------------------------------------------
                                    835 	.area PSEG    (PAG,XDATA)
                                    836 ;--------------------------------------------------------
                                    837 ; external ram data
                                    838 ;--------------------------------------------------------
                                    839 	.area XSEG    (XDATA)
                           0061A6   840 _MONMUX	=	0x61a6
                           0061A6   841 _OPAMPMC	=	0x61a6
                           006230   842 _I2CCFG	=	0x6230
                           006231   843 _I2CSTAT	=	0x6231
                           006232   844 _I2CDATA	=	0x6232
                           006233   845 _I2CADDR	=	0x6233
                           006234   846 _I2CWC	=	0x6234
                           006235   847 _I2CIO	=	0x6235
                           006243   848 _OBSSEL0	=	0x6243
                           006244   849 _OBSSEL1	=	0x6244
                           006245   850 _OBSSEL2	=	0x6245
                           006246   851 _OBSSEL3	=	0x6246
                           006247   852 _OBSSEL4	=	0x6247
                           006248   853 _OBSSEL5	=	0x6248
                           006249   854 _CHVER	=	0x6249
                           00624A   855 _CHIPID	=	0x624a
                           00624B   856 _TESTREG0	=	0x624b
                           006260   857 _DBGDATA	=	0x6260
                           006262   858 _SRCRC	=	0x6262
                           006264   859 _BATTMON	=	0x6264
                           006265   860 _IVCTRL	=	0x6265
                           006270   861 _FCTL	=	0x6270
                           006271   862 _FADDRL	=	0x6271
                           006272   863 _FADDRH	=	0x6272
                           006273   864 _FWDATA	=	0x6273
                           006276   865 _CHIPINFO0	=	0x6276
                           006277   866 _CHIPINFO1	=	0x6277
                           006281   867 _IRCTL	=	0x6281
                           006290   868 _CLD	=	0x6290
                           0062A0   869 _XX_T1CCTL0	=	0x62a0
                           0062A1   870 _XX_T1CCTL1	=	0x62a1
                           0062A2   871 _XX_T1CCTL2	=	0x62a2
                           0062A3   872 _T1CCTL3	=	0x62a3
                           0062A4   873 _T1CCTL4	=	0x62a4
                           0062A6   874 _XX_T1CC0L	=	0x62a6
                           0062A7   875 _XX_T1CC0H	=	0x62a7
                           0062A8   876 _XX_T1CC1L	=	0x62a8
                           0062A9   877 _XX_T1CC1H	=	0x62a9
                           0062AA   878 _XX_T1CC2L	=	0x62aa
                           0062AB   879 _XX_T1CC2H	=	0x62ab
                           0062AC   880 _T1CC3L	=	0x62ac
                           0062AD   881 _T1CC3H	=	0x62ad
                           0062AE   882 _T1CC4L	=	0x62ae
                           0062AF   883 _T1CC4H	=	0x62af
                           0062B0   884 _STCC	=	0x62b0
                           0062B1   885 _STCS	=	0x62b1
                           0062B2   886 _STCV0	=	0x62b2
                           0062B3   887 _STCV1	=	0x62b3
                           0062B4   888 _STCV2	=	0x62b4
                           0062C0   889 _OPAMPC	=	0x62c0
                           0062C1   890 _OPAMPS	=	0x62c1
                           0062D0   891 _CMPCTL	=	0x62d0
                           006000   892 _RFCORE_RAM	=	0x6000
                           006000   893 _RXFIFO	=	0x6000
                           006080   894 _TXFIFO	=	0x6080
                           006100   895 _SRC_ADDR_TABLE	=	0x6100
                           006160   896 _SRCRESMASK0	=	0x6160
                           006161   897 _SRCRESMASK1	=	0x6161
                           006162   898 _SRCRESMASK2	=	0x6162
                           006163   899 _SRCRESINDEX	=	0x6163
                           006164   900 _SRCEXTPENDEN0	=	0x6164
                           006165   901 _SRCEXTPENDEN1	=	0x6165
                           006166   902 _SRCEXTPENDEN2	=	0x6166
                           006167   903 _SRCSHORTPENDEN0	=	0x6167
                           006168   904 _SRCSHORTPENDEN1	=	0x6168
                           006169   905 _SRCSHORTPENDEN2	=	0x6169
                           00616A   906 _EXT_ADDR0	=	0x616a
                           00616B   907 _EXT_ADDR1	=	0x616b
                           00616C   908 _EXT_ADDR2	=	0x616c
                           00616D   909 _EXT_ADDR3	=	0x616d
                           00616E   910 _EXT_ADDR4	=	0x616e
                           00616F   911 _EXT_ADDR5	=	0x616f
                           006170   912 _EXT_ADDR6	=	0x6170
                           006171   913 _EXT_ADDR7	=	0x6171
                           006172   914 _PAN_ID0	=	0x6172
                           006173   915 _PAN_ID1	=	0x6173
                           006174   916 _SHORT_ADDR0	=	0x6174
                           006175   917 _SHORT_ADDR1	=	0x6175
                           006180   918 _FRMFILT0	=	0x6180
                           006181   919 _FRMFILT1	=	0x6181
                           006182   920 _SRCMATCH	=	0x6182
                           006183   921 _SRCSHORTEN0	=	0x6183
                           006184   922 _SRCSHORTEN1	=	0x6184
                           006185   923 _SRCSHORTEN2	=	0x6185
                           006186   924 _SRCEXTEN0	=	0x6186
                           006187   925 _SRCEXTEN1	=	0x6187
                           006188   926 _SRCEXTEN2	=	0x6188
                           006189   927 _FRMCTRL0	=	0x6189
                           00618A   928 _FRMCTRL1	=	0x618a
                           00618B   929 _RXENABLE	=	0x618b
                           00618C   930 _RXMASKSET	=	0x618c
                           00618D   931 _RXMASKCLR	=	0x618d
                           00618E   932 _FREQTUNE	=	0x618e
                           00618F   933 _FREQCTRL	=	0x618f
                           006190   934 _TXPOWER	=	0x6190
                           006191   935 _TXCTRL	=	0x6191
                           006192   936 _FSMSTAT0	=	0x6192
                           006193   937 _FSMSTAT1	=	0x6193
                           006194   938 _FIFOPCTRL	=	0x6194
                           006195   939 _FSMCTRL	=	0x6195
                           006196   940 _CCACTRL0	=	0x6196
                           006197   941 _CCACTRL1	=	0x6197
                           006198   942 _RSSI	=	0x6198
                           006199   943 _RSSISTAT	=	0x6199
                           00619A   944 _RXFIRST	=	0x619a
                           00619B   945 _RXFIFOCNT	=	0x619b
                           00619C   946 _TXFIFOCNT	=	0x619c
                           00619D   947 _RXFIRST_PTR	=	0x619d
                           00619E   948 _RXLAST_PTR	=	0x619e
                           00619F   949 _RXP1_PTR	=	0x619f
                           0061A1   950 _TXFIRST_PTR	=	0x61a1
                           0061A2   951 _TXLAST_PTR	=	0x61a2
                           0061A3   952 _RFIRQM0	=	0x61a3
                           0061A4   953 _RFIRQM1	=	0x61a4
                           0061A5   954 _RFERRM	=	0x61a5
                           0061A7   955 _RFRND	=	0x61a7
                           0061A8   956 _MDMCTRL0	=	0x61a8
                           0061A9   957 _MDMCTRL1	=	0x61a9
                           0061AA   958 _FREQEST	=	0x61aa
                           0061AB   959 _RXCTRL	=	0x61ab
                           0061AC   960 _FSCTRL	=	0x61ac
                           0061AD   961 _FSCAL0	=	0x61ad
                           0061AE   962 _FSCAL1	=	0x61ae
                           0061AF   963 _FSCAL2	=	0x61af
                           0061B0   964 _FSCAL3	=	0x61b0
                           0061B1   965 _AGCCTRL0	=	0x61b1
                           0061B2   966 _AGCCTRL1	=	0x61b2
                           0061B3   967 _AGCCTRL2	=	0x61b3
                           0061B4   968 _AGCCTRL3	=	0x61b4
                           0061B5   969 _ADCTEST0	=	0x61b5
                           0061B6   970 _ADCTEST1	=	0x61b6
                           0061B7   971 _ADCTEST2	=	0x61b7
                           0061B8   972 _MDMTEST0	=	0x61b8
                           0061B9   973 _MDMTEST1	=	0x61b9
                           0061BA   974 _DACTEST0	=	0x61ba
                           0061BB   975 _DACTEST1	=	0x61bb
                           0061BC   976 _DACTEST2	=	0x61bc
                           0061BD   977 _ATEST	=	0x61bd
                           0061BE   978 _PTEST0	=	0x61be
                           0061BF   979 _PTEST1	=	0x61bf
                           0061FA   980 _TXFILTCFG	=	0x61fa
                           0061EB   981 _RFC_OBS_CTRL0	=	0x61eb
                           0061EC   982 _RFC_OBS_CTRL1	=	0x61ec
                           0061ED   983 _RFC_OBS_CTRL2	=	0x61ed
                           0061C0   984 _CSPPROG0	=	0x61c0
                           0061C1   985 _CSPPROG1	=	0x61c1
                           0061C2   986 _CSPPROG2	=	0x61c2
                           0061C3   987 _CSPPROG3	=	0x61c3
                           0061C4   988 _CSPPROG4	=	0x61c4
                           0061C5   989 _CSPPROG5	=	0x61c5
                           0061C6   990 _CSPPROG6	=	0x61c6
                           0061C7   991 _CSPPROG7	=	0x61c7
                           0061C8   992 _CSPPROG8	=	0x61c8
                           0061C9   993 _CSPPROG9	=	0x61c9
                           0061CA   994 _CSPPROG10	=	0x61ca
                           0061CB   995 _CSPPROG11	=	0x61cb
                           0061CC   996 _CSPPROG12	=	0x61cc
                           0061CD   997 _CSPPROG13	=	0x61cd
                           0061CE   998 _CSPPROG14	=	0x61ce
                           0061CF   999 _CSPPROG15	=	0x61cf
                           0061D0  1000 _CSPPROG16	=	0x61d0
                           0061D1  1001 _CSPPROG17	=	0x61d1
                           0061D2  1002 _CSPPROG18	=	0x61d2
                           0061D3  1003 _CSPPROG19	=	0x61d3
                           0061D4  1004 _CSPPROG20	=	0x61d4
                           0061D5  1005 _CSPPROG21	=	0x61d5
                           0061D6  1006 _CSPPROG22	=	0x61d6
                           0061D7  1007 _CSPPROG23	=	0x61d7
                           0061E0  1008 _CSPCTRL	=	0x61e0
                           0061E1  1009 _CSPSTAT	=	0x61e1
                           0061E2  1010 _CSPX	=	0x61e2
                           0061E3  1011 _CSPY	=	0x61e3
                           0061E4  1012 _CSPZ	=	0x61e4
                           0061E5  1013 _CSPT	=	0x61e5
                           006200  1014 _USBADDR	=	0x6200
                           006201  1015 _USBPOW	=	0x6201
                           006202  1016 _USBIIF	=	0x6202
                           006204  1017 _USBOIF	=	0x6204
                           006206  1018 _USBCIF	=	0x6206
                           006207  1019 _USBIIE	=	0x6207
                           006209  1020 _USBOIE	=	0x6209
                           00620B  1021 _USBCIE	=	0x620b
                           00620C  1022 _USBFRML	=	0x620c
                           00620D  1023 _USBFRMH	=	0x620d
                           00620E  1024 _USBINDEX	=	0x620e
                           00620F  1025 _USBCTRL	=	0x620f
                           006210  1026 _USBMAXI	=	0x6210
                           006211  1027 _USBCS0	=	0x6211
                           006211  1028 _USBCSIL	=	0x6211
                           006212  1029 _USBCSIH	=	0x6212
                           006213  1030 _USBMAXO	=	0x6213
                           006214  1031 _USBCSOL	=	0x6214
                           006215  1032 _USBCSOH	=	0x6215
                           006216  1033 _USBCNT0	=	0x6216
                           006216  1034 _USBCNTL	=	0x6216
                           006217  1035 _USBCNTH	=	0x6217
                           006220  1036 _USBF0	=	0x6220
                           006222  1037 _USBF1	=	0x6222
                           006224  1038 _USBF2	=	0x6224
                           006226  1039 _USBF3	=	0x6226
                           006228  1040 _USBF4	=	0x6228
                           00622A  1041 _USBF5	=	0x622a
                           007080  1042 _X_P0	=	0x7080
                           007086  1043 _X_U0CSR	=	0x7086
                           007089  1044 _X_P0IFG	=	0x7089
                           00708A  1045 _X_P1IFG	=	0x708a
                           00708B  1046 _X_P2IFG	=	0x708b
                           00708C  1047 _X_PICTL	=	0x708c
                           00708D  1048 _X_P1IEN	=	0x708d
                           00708F  1049 _X_P0INP	=	0x708f
                           007090  1050 _X_P1	=	0x7090
                           007091  1051 _X_RFIRQF1	=	0x7091
                           007093  1052 _X_MPAGE	=	0x7093
                           007093  1053 _X__XPAGE	=	0x7093
                           007094  1054 _X_T2CTRL	=	0x7094
                           007095  1055 _X_ST0	=	0x7095
                           007096  1056 _X_ST1	=	0x7096
                           007097  1057 _X_ST2	=	0x7097
                           00709C  1058 _X_T2EVTCFG	=	0x709c
                           00709D  1059 _X_SLEEPSTA	=	0x709d
                           00709E  1060 _X_CLKCONSTA	=	0x709e
                           00709F  1061 _X_FMAP	=	0x709f
                           00709F  1062 _X_PSBANK	=	0x709f
                           0070A0  1063 _X_P2	=	0x70a0
                           0070A1  1064 _X_T2IRQF	=	0x70a1
                           0070A2  1065 _X_T2M0	=	0x70a2
                           0070A3  1066 _X_T2M1	=	0x70a3
                           0070A4  1067 _X_T2MOVF0	=	0x70a4
                           0070A5  1068 _X_T2MOVF1	=	0x70a5
                           0070A6  1069 _X_T2MOVF2	=	0x70a6
                           0070A7  1070 _X_T2IRQM	=	0x70a7
                           0070AB  1071 _X_P0IEN	=	0x70ab
                           0070AC  1072 _X_P2IEN	=	0x70ac
                           0070AD  1073 _X_STLOAD	=	0x70ad
                           0070AE  1074 _X_PMUX	=	0x70ae
                           0070AF  1075 _X_T1STAT	=	0x70af
                           0070B1  1076 _X_ENCDI	=	0x70b1
                           0070B2  1077 _X_ENCDO	=	0x70b2
                           0070B3  1078 _X_ENCCS	=	0x70b3
                           0070B4  1079 _X_ADCCON1	=	0x70b4
                           0070B5  1080 _X_ADCCON2	=	0x70b5
                           0070B6  1081 _X_ADCCON3	=	0x70b6
                           0070BA  1082 _X_ADCL	=	0x70ba
                           0070BB  1083 _X_ADCH	=	0x70bb
                           0070BC  1084 _X_RNDL	=	0x70bc
                           0070BD  1085 _X_RNDH	=	0x70bd
                           0070BE  1086 _X_SLEEPCMD	=	0x70be
                           0070BF  1087 _X_RFERRF	=	0x70bf
                           0070C1  1088 _X_U0DBUF	=	0x70c1
                           0070C2  1089 _X_U0BAUD	=	0x70c2
                           0070C3  1090 _X_T2MSEL	=	0x70c3
                           0070C4  1091 _X_U0UCR	=	0x70c4
                           0070C5  1092 _X_U0GCR	=	0x70c5
                           0070C6  1093 _X_CLKCONCMD	=	0x70c6
                           0070C7  1094 _X_MEMCTR	=	0x70c7
                           0070C9  1095 _X_WDCTL	=	0x70c9
                           0070CA  1096 _X_T3CNT	=	0x70ca
                           0070CB  1097 _X_T3CTL	=	0x70cb
                           0070CC  1098 _X_T3CCTL0	=	0x70cc
                           0070CD  1099 _X_T3CC0	=	0x70cd
                           0070CE  1100 _X_T3CCTL1	=	0x70ce
                           0070CF  1101 _X_T3CC1	=	0x70cf
                           0070D1  1102 _X_DMAIRQ	=	0x70d1
                           0070D2  1103 _X_DMA1CFGL	=	0x70d2
                           0070D3  1104 _X_DMA1CFGH	=	0x70d3
                           0070D4  1105 _X_DMA0CFGL	=	0x70d4
                           0070D5  1106 _X_DMA0CFGH	=	0x70d5
                           0070D6  1107 _X_DMAARM	=	0x70d6
                           0070D7  1108 _X_DMAREQ	=	0x70d7
                           0070D8  1109 _X_TIMIF	=	0x70d8
                           0070D9  1110 _X_RFD	=	0x70d9
                           0070DA  1111 _X_T1CC0L	=	0x70da
                           0070DB  1112 _X_T1CC0H	=	0x70db
                           0070DC  1113 _X_T1CC1L	=	0x70dc
                           0070DD  1114 _X_T1CC1H	=	0x70dd
                           0070DE  1115 _X_T1CC2L	=	0x70de
                           0070DF  1116 _X_T1CC2H	=	0x70df
                           0070E1  1117 _X_RFST	=	0x70e1
                           0070E2  1118 _X_T1CNTL	=	0x70e2
                           0070E3  1119 _X_T1CNTH	=	0x70e3
                           0070E4  1120 _X_T1CTL	=	0x70e4
                           0070E5  1121 _X_T1CCTL0	=	0x70e5
                           0070E6  1122 _X_T1CCTL1	=	0x70e6
                           0070E7  1123 _X_T1CCTL2	=	0x70e7
                           0070E9  1124 _X_RFIRQF0	=	0x70e9
                           0070EA  1125 _X_T4CNT	=	0x70ea
                           0070EB  1126 _X_T4CTL	=	0x70eb
                           0070EC  1127 _X_T4CCTL0	=	0x70ec
                           0070ED  1128 _X_T4CC0	=	0x70ed
                           0070EE  1129 _X_T4CCTL1	=	0x70ee
                           0070EF  1130 _X_T4CC1	=	0x70ef
                           0070F1  1131 _X_PERCFG	=	0x70f1
                           0070F2  1132 _X_APCFG	=	0x70f2
                           0070F3  1133 _X_P0SEL	=	0x70f3
                           0070F4  1134 _X_P1SEL	=	0x70f4
                           0070F5  1135 _X_P2SEL	=	0x70f5
                           0070F6  1136 _X_P1INP	=	0x70f6
                           0070F7  1137 _X_P2INP	=	0x70f7
                           0070F8  1138 _X_U1CSR	=	0x70f8
                           0070F9  1139 _X_U1DBUF	=	0x70f9
                           0070FA  1140 _X_U1BAUD	=	0x70fa
                           0070FB  1141 _X_U1UCR	=	0x70fb
                           0070FC  1142 _X_U1GCR	=	0x70fc
                           0070FD  1143 _X_P0DIR	=	0x70fd
                           0070FE  1144 _X_P1DIR	=	0x70fe
                           0070FF  1145 _X_P2DIR	=	0x70ff
                           007800  1146 _X_INFOPAGE	=	0x7800
                           00780C  1147 _X_IEEE_ADDR	=	0x780c
      000000                       1148 _tcpip_event::
      000000                       1149 	.ds 1
      000001                       1150 _tcpip_icmp6_event::
      000001                       1151 	.ds 1
      000002                       1152 _periodic:
      000002                       1153 	.ds 10
      00000C                       1154 _outputfunc:
      00000C                       1155 	.ds 3
                                   1156 ;--------------------------------------------------------
                                   1157 ; absolute external ram data
                                   1158 ;--------------------------------------------------------
                                   1159 	.area XABS    (ABS,XDATA)
                                   1160 ;--------------------------------------------------------
                                   1161 ; external initialized ram data
                                   1162 ;--------------------------------------------------------
                                   1163 	.area XISEG   (XDATA)
      000000                       1164 _tcpip_process::
      000000                       1165 	.ds 10
                                   1166 	.area HOME    (CODE)
                                   1167 	.area GSINIT0 (CODE)
                                   1168 	.area GSINIT1 (CODE)
                                   1169 	.area GSINIT2 (CODE)
                                   1170 	.area GSINIT3 (CODE)
                                   1171 	.area GSINIT4 (CODE)
                                   1172 	.area GSINIT5 (CODE)
                                   1173 	.area GSINIT  (CODE)
                                   1174 	.area GSFINAL (CODE)
                                   1175 	.area CSEG    (CODE)
                                   1176 ;--------------------------------------------------------
                                   1177 ; global & static initialisations
                                   1178 ;--------------------------------------------------------
                                   1179 	.area HOME    (CODE)
                                   1180 	.area GSINIT  (CODE)
                                   1181 	.area GSFINAL (CODE)
                                   1182 	.area GSINIT  (CODE)
                                   1183 ;--------------------------------------------------------
                                   1184 ; Home
                                   1185 ;--------------------------------------------------------
                                   1186 	.area HOME    (CODE)
                                   1187 	.area HOME    (CODE)
                                   1188 ;--------------------------------------------------------
                                   1189 ; code
                                   1190 ;--------------------------------------------------------
                                   1191 	.area BANK1   (CODE)
                                   1192 ;------------------------------------------------------------
                                   1193 ;Allocation info for local variables in function 'tcpip_output'
                                   1194 ;------------------------------------------------------------
                                   1195 ;a                         Allocated to registers r5 r6 r7 
                                   1196 ;ret                       Allocated to registers r7 r6 
                                   1197 ;------------------------------------------------------------
                                   1198 ;	/opt/contiki/core/net/ip/tcpip.c:115: tcpip_output(const uip_lladdr_t *a)
                                   1199 ;	-----------------------------------------
                                   1200 ;	 function tcpip_output
                                   1201 ;	-----------------------------------------
      000000                       1202 _tcpip_output:
                           000007  1203 	ar7 = 0x07
                           000006  1204 	ar6 = 0x06
                           000005  1205 	ar5 = 0x05
                           000004  1206 	ar4 = 0x04
                           000003  1207 	ar3 = 0x03
                           000002  1208 	ar2 = 0x02
                           000001  1209 	ar1 = 0x01
                           000000  1210 	ar0 = 0x00
      000000 AD 82            [24] 1211 	mov	r5,dpl
      000002 AE 83            [24] 1212 	mov	r6,dph
      000004 AF F0            [24] 1213 	mov	r7,b
                                   1214 ;	/opt/contiki/core/net/ip/tcpip.c:118: if(outputfunc != NULL) {
      000006 90r00r0C         [24] 1215 	mov	dptr,#_outputfunc
      000009 E0               [24] 1216 	movx	a,@dptr
      00000A FA               [12] 1217 	mov	r2,a
      00000B A3               [24] 1218 	inc	dptr
      00000C E0               [24] 1219 	movx	a,@dptr
      00000D FB               [12] 1220 	mov	r3,a
      00000E A3               [24] 1221 	inc	dptr
      00000F E0               [24] 1222 	movx	a,@dptr
      000010 FC               [12] 1223 	mov	r4,a
      000011 EA               [12] 1224 	mov	a,r2
      000012 4B               [12] 1225 	orl	a,r3
      000013 60 23            [24] 1226 	jz	00102$
                                   1227 ;	/opt/contiki/core/net/ip/tcpip.c:119: ret = outputfunc(a);
      000015 90r00r0C         [24] 1228 	mov	dptr,#_outputfunc
      000018 E0               [24] 1229 	movx	a,@dptr
      000019 C0 E0            [24] 1230 	push	acc
      00001B A3               [24] 1231 	inc	dptr
      00001C E0               [24] 1232 	movx	a,@dptr
      00001D C0 E0            [24] 1233 	push	acc
      00001F A3               [24] 1234 	inc	dptr
      000020 E0               [24] 1235 	movx	a,@dptr
      000021 C0 E0            [24] 1236 	push	acc
      000023 8D 82            [24] 1237 	mov	dpl,r5
      000025 8E 83            [24] 1238 	mov	dph,r6
      000027 8F F0            [24] 1239 	mov	b,r7
      000029 D0 02            [24] 1240 	pop	ar2
      00002B D0 01            [24] 1241 	pop	ar1
      00002D D0 00            [24] 1242 	pop	ar0
      00002F 12r00r00         [24] 1243 	lcall	__sdcc_banked_call
                                   1244 ;	/opt/contiki/core/net/ip/tcpip.c:120: return ret;
      000032 AF 82            [24] 1245 	mov	r7,dpl
      000034 7E 00            [12] 1246 	mov	r6,#0x00
      000036 80 03            [24] 1247 	sjmp	00103$
      000038                       1248 00102$:
                                   1249 ;	/opt/contiki/core/net/ip/tcpip.c:123: return 0;
      000038 75 82 00         [24] 1250 	mov	dpl,#0x00
      00003B                       1251 00103$:
      00003B 02r00r00         [24] 1252 	ljmp	__sdcc_banked_ret
                                   1253 ;------------------------------------------------------------
                                   1254 ;Allocation info for local variables in function 'tcpip_set_outputfunc'
                                   1255 ;------------------------------------------------------------
                                   1256 ;f                         Allocated to registers 
                                   1257 ;------------------------------------------------------------
                                   1258 ;	/opt/contiki/core/net/ip/tcpip.c:127: tcpip_set_outputfunc(uint8_t (*f)(const uip_lladdr_t *))
                                   1259 ;	-----------------------------------------
                                   1260 ;	 function tcpip_set_outputfunc
                                   1261 ;	-----------------------------------------
      00003E                       1262 _tcpip_set_outputfunc:
      00003E AF F0            [24] 1263 	mov	r7,b
      000040 AE 83            [24] 1264 	mov	r6,dph
      000042 E5 82            [12] 1265 	mov	a,dpl
      000044 90r00r0C         [24] 1266 	mov	dptr,#_outputfunc
      000047 F0               [24] 1267 	movx	@dptr,a
      000048 EE               [12] 1268 	mov	a,r6
      000049 A3               [24] 1269 	inc	dptr
      00004A F0               [24] 1270 	movx	@dptr,a
      00004B EF               [12] 1271 	mov	a,r7
      00004C A3               [24] 1272 	inc	dptr
      00004D F0               [24] 1273 	movx	@dptr,a
                                   1274 ;	/opt/contiki/core/net/ip/tcpip.c:129: outputfunc = f;
      00004E 02r00r00         [24] 1275 	ljmp	__sdcc_banked_ret
                                   1276 ;------------------------------------------------------------
                                   1277 ;Allocation info for local variables in function 'check_for_tcp_syn'
                                   1278 ;------------------------------------------------------------
                                   1279 ;	/opt/contiki/core/net/ip/tcpip.c:169: check_for_tcp_syn(void)
                                   1280 ;	-----------------------------------------
                                   1281 ;	 function check_for_tcp_syn
                                   1282 ;	-----------------------------------------
      000051                       1283 _check_for_tcp_syn:
                                   1284 ;	/opt/contiki/core/net/ip/tcpip.c:183: }
      000051 02r00r00         [24] 1285 	ljmp	__sdcc_banked_ret
                                   1286 ;------------------------------------------------------------
                                   1287 ;Allocation info for local variables in function 'packet_input'
                                   1288 ;------------------------------------------------------------
                                   1289 ;	/opt/contiki/core/net/ip/tcpip.c:186: packet_input(void)
                                   1290 ;	-----------------------------------------
                                   1291 ;	 function packet_input
                                   1292 ;	-----------------------------------------
      000054                       1293 _packet_input:
                                   1294 ;	/opt/contiki/core/net/ip/tcpip.c:188: if(uip_len > 0) {
      000054 90r00r00         [24] 1295 	mov	dptr,#_uip_len
      000057 E0               [24] 1296 	movx	a,@dptr
      000058 FE               [12] 1297 	mov	r6,a
      000059 A3               [24] 1298 	inc	dptr
      00005A E0               [24] 1299 	movx	a,@dptr
      00005B FF               [12] 1300 	mov	r7,a
      00005C 4E               [12] 1301 	orl	a,r6
      00005D 60 29            [24] 1302 	jz	00105$
                                   1303 ;	/opt/contiki/core/net/ip/tcpip.c:199: check_for_tcp_syn();
      00005F 78r51            [12] 1304 	mov	r0,#_check_for_tcp_syn
      000061 79s00            [12] 1305 	mov	r1,#(_check_for_tcp_syn >> 8)
      000063 7As00            [12] 1306 	mov	r2,#(_check_for_tcp_syn >> 16)
      000065 12r00r00         [24] 1307 	lcall	__sdcc_banked_call
                                   1308 ;	/opt/contiki/core/net/ip/tcpip.c:200: uip_input();
      000068 75 82 01         [24] 1309 	mov	dpl,#0x01
      00006B 78r00            [12] 1310 	mov	r0,#_uip_process
      00006D 79s00            [12] 1311 	mov	r1,#(_uip_process >> 8)
      00006F 7As00            [12] 1312 	mov	r2,#(_uip_process >> 16)
      000071 12r00r00         [24] 1313 	lcall	__sdcc_banked_call
                                   1314 ;	/opt/contiki/core/net/ip/tcpip.c:201: if(uip_len > 0) {
      000074 90r00r00         [24] 1315 	mov	dptr,#_uip_len
      000077 E0               [24] 1316 	movx	a,@dptr
      000078 FE               [12] 1317 	mov	r6,a
      000079 A3               [24] 1318 	inc	dptr
      00007A E0               [24] 1319 	movx	a,@dptr
      00007B FF               [12] 1320 	mov	r7,a
      00007C 4E               [12] 1321 	orl	a,r6
      00007D 60 09            [24] 1322 	jz	00105$
                                   1323 ;	/opt/contiki/core/net/ip/tcpip.c:206: tcpip_ipv6_output();
      00007F 78r83            [12] 1324 	mov	r0,#_tcpip_ipv6_output
      000081 79s04            [12] 1325 	mov	r1,#(_tcpip_ipv6_output >> 8)
      000083 7As00            [12] 1326 	mov	r2,#(_tcpip_ipv6_output >> 16)
      000085 12r00r00         [24] 1327 	lcall	__sdcc_banked_call
      000088                       1328 00105$:
      000088 02r00r00         [24] 1329 	ljmp	__sdcc_banked_ret
                                   1330 ;------------------------------------------------------------
                                   1331 ;Allocation info for local variables in function 'udp_attach'
                                   1332 ;------------------------------------------------------------
                                   1333 ;appstate                  Allocated to stack - sp -5
                                   1334 ;conn                      Allocated to registers r5 r6 r7 
                                   1335 ;s                         Allocated to registers r5 r6 r7 
                                   1336 ;------------------------------------------------------------
                                   1337 ;	/opt/contiki/core/net/ip/tcpip.c:288: udp_attach(struct uip_udp_conn *conn,
                                   1338 ;	-----------------------------------------
                                   1339 ;	 function udp_attach
                                   1340 ;	-----------------------------------------
      00008B                       1341 _udp_attach:
      00008B AD 82            [24] 1342 	mov	r5,dpl
      00008D AE 83            [24] 1343 	mov	r6,dph
      00008F AF F0            [24] 1344 	mov	r7,b
                                   1345 ;	/opt/contiki/core/net/ip/tcpip.c:293: s = &conn->appstate;
      000091 74 15            [12] 1346 	mov	a,#0x15
      000093 2D               [12] 1347 	add	a,r5
      000094 FD               [12] 1348 	mov	r5,a
      000095 E4               [12] 1349 	clr	a
      000096 3E               [12] 1350 	addc	a,r6
      000097 FE               [12] 1351 	mov	r6,a
                                   1352 ;	/opt/contiki/core/net/ip/tcpip.c:294: s->p = PROCESS_CURRENT();
      000098 90r00r00         [24] 1353 	mov	dptr,#_process_current
      00009B E0               [24] 1354 	movx	a,@dptr
      00009C FA               [12] 1355 	mov	r2,a
      00009D A3               [24] 1356 	inc	dptr
      00009E E0               [24] 1357 	movx	a,@dptr
      00009F FB               [12] 1358 	mov	r3,a
      0000A0 A3               [24] 1359 	inc	dptr
      0000A1 E0               [24] 1360 	movx	a,@dptr
      0000A2 FC               [12] 1361 	mov	r4,a
      0000A3 8D 82            [24] 1362 	mov	dpl,r5
      0000A5 8E 83            [24] 1363 	mov	dph,r6
      0000A7 8F F0            [24] 1364 	mov	b,r7
      0000A9 EA               [12] 1365 	mov	a,r2
      0000AA 12r00r00         [24] 1366 	lcall	__gptrput
      0000AD A3               [24] 1367 	inc	dptr
      0000AE EB               [12] 1368 	mov	a,r3
      0000AF 12r00r00         [24] 1369 	lcall	__gptrput
      0000B2 A3               [24] 1370 	inc	dptr
      0000B3 EC               [12] 1371 	mov	a,r4
      0000B4 12r00r00         [24] 1372 	lcall	__gptrput
                                   1373 ;	/opt/contiki/core/net/ip/tcpip.c:295: s->state = appstate;
      0000B7 74 03            [12] 1374 	mov	a,#0x03
      0000B9 2D               [12] 1375 	add	a,r5
      0000BA FD               [12] 1376 	mov	r5,a
      0000BB E4               [12] 1377 	clr	a
      0000BC 3E               [12] 1378 	addc	a,r6
      0000BD FE               [12] 1379 	mov	r6,a
      0000BE 8D 82            [24] 1380 	mov	dpl,r5
      0000C0 8E 83            [24] 1381 	mov	dph,r6
      0000C2 8F F0            [24] 1382 	mov	b,r7
      0000C4 E5 81            [12] 1383 	mov	a,sp
      0000C6 24 FB            [12] 1384 	add	a,#0xfb
      0000C8 F8               [12] 1385 	mov	r0,a
      0000C9 E6               [12] 1386 	mov	a,@r0
      0000CA 12r00r00         [24] 1387 	lcall	__gptrput
      0000CD A3               [24] 1388 	inc	dptr
      0000CE 08               [12] 1389 	inc	r0
      0000CF E6               [12] 1390 	mov	a,@r0
      0000D0 12r00r00         [24] 1391 	lcall	__gptrput
      0000D3 A3               [24] 1392 	inc	dptr
      0000D4 08               [12] 1393 	inc	r0
      0000D5 E6               [12] 1394 	mov	a,@r0
      0000D6 12r00r00         [24] 1395 	lcall	__gptrput
      0000D9 02r00r00         [24] 1396 	ljmp	__sdcc_banked_ret
                                   1397 ;------------------------------------------------------------
                                   1398 ;Allocation info for local variables in function 'udp_new'
                                   1399 ;------------------------------------------------------------
                                   1400 ;port                      Allocated to stack - sp -7
                                   1401 ;appstate                  Allocated to stack - sp -10
                                   1402 ;ripaddr                   Allocated to registers r5 r6 r7 
                                   1403 ;c                         Allocated to stack - sp -2
                                   1404 ;s                         Allocated to registers r2 r3 r4 
                                   1405 ;------------------------------------------------------------
                                   1406 ;	/opt/contiki/core/net/ip/tcpip.c:299: udp_new(const uip_ipaddr_t *ripaddr, uint16_t port, void *appstate)
                                   1407 ;	-----------------------------------------
                                   1408 ;	 function udp_new
                                   1409 ;	-----------------------------------------
      0000DC                       1410 _udp_new:
      0000DC 05 81            [12] 1411 	inc	sp
      0000DE 05 81            [12] 1412 	inc	sp
      0000E0 05 81            [12] 1413 	inc	sp
      0000E2 AD 82            [24] 1414 	mov	r5,dpl
      0000E4 AE 83            [24] 1415 	mov	r6,dph
      0000E6 AF F0            [24] 1416 	mov	r7,b
                                   1417 ;	/opt/contiki/core/net/ip/tcpip.c:304: c = uip_udp_new(ripaddr, port);
      0000E8 E5 81            [12] 1418 	mov	a,sp
      0000EA 24 F9            [12] 1419 	add	a,#0xf9
      0000EC F8               [12] 1420 	mov	r0,a
      0000ED E6               [12] 1421 	mov	a,@r0
      0000EE C0 E0            [24] 1422 	push	acc
      0000F0 08               [12] 1423 	inc	r0
      0000F1 E6               [12] 1424 	mov	a,@r0
      0000F2 C0 E0            [24] 1425 	push	acc
      0000F4 8D 82            [24] 1426 	mov	dpl,r5
      0000F6 8E 83            [24] 1427 	mov	dph,r6
      0000F8 8F F0            [24] 1428 	mov	b,r7
      0000FA 78r00            [12] 1429 	mov	r0,#_uip_udp_new
      0000FC 79s00            [12] 1430 	mov	r1,#(_uip_udp_new >> 8)
      0000FE 7As00            [12] 1431 	mov	r2,#(_uip_udp_new >> 16)
      000100 12r00r00         [24] 1432 	lcall	__sdcc_banked_call
      000103 AD 82            [24] 1433 	mov	r5,dpl
      000105 AE 83            [24] 1434 	mov	r6,dph
      000107 AF F0            [24] 1435 	mov	r7,b
      000109 15 81            [12] 1436 	dec	sp
      00010B 15 81            [12] 1437 	dec	sp
      00010D A8 81            [24] 1438 	mov	r0,sp
      00010F 18               [12] 1439 	dec	r0
      000110 18               [12] 1440 	dec	r0
      000111 A6 05            [24] 1441 	mov	@r0,ar5
      000113 08               [12] 1442 	inc	r0
      000114 A6 06            [24] 1443 	mov	@r0,ar6
      000116 08               [12] 1444 	inc	r0
      000117 A6 07            [24] 1445 	mov	@r0,ar7
                                   1446 ;	/opt/contiki/core/net/ip/tcpip.c:305: if(c == NULL) {
      000119 A8 81            [24] 1447 	mov	r0,sp
      00011B 18               [12] 1448 	dec	r0
      00011C 18               [12] 1449 	dec	r0
      00011D E6               [12] 1450 	mov	a,@r0
      00011E 08               [12] 1451 	inc	r0
      00011F 46               [12] 1452 	orl	a,@r0
                                   1453 ;	/opt/contiki/core/net/ip/tcpip.c:306: return NULL;
      000120 70 07            [24] 1454 	jnz	00102$
      000122 90 00 00         [24] 1455 	mov	dptr,#0x0000
      000125 F5 F0            [12] 1456 	mov	b,a
      000127 80 5C            [24] 1457 	sjmp	00103$
      000129                       1458 00102$:
                                   1459 ;	/opt/contiki/core/net/ip/tcpip.c:309: s = &c->appstate;
      000129 A8 81            [24] 1460 	mov	r0,sp
      00012B 18               [12] 1461 	dec	r0
      00012C 18               [12] 1462 	dec	r0
      00012D 74 15            [12] 1463 	mov	a,#0x15
      00012F 26               [12] 1464 	add	a,@r0
      000130 FA               [12] 1465 	mov	r2,a
      000131 E4               [12] 1466 	clr	a
      000132 08               [12] 1467 	inc	r0
      000133 36               [12] 1468 	addc	a,@r0
      000134 FB               [12] 1469 	mov	r3,a
      000135 08               [12] 1470 	inc	r0
      000136 86 04            [24] 1471 	mov	ar4,@r0
                                   1472 ;	/opt/contiki/core/net/ip/tcpip.c:310: s->p = PROCESS_CURRENT();
      000138 90r00r00         [24] 1473 	mov	dptr,#_process_current
      00013B E0               [24] 1474 	movx	a,@dptr
      00013C FD               [12] 1475 	mov	r5,a
      00013D A3               [24] 1476 	inc	dptr
      00013E E0               [24] 1477 	movx	a,@dptr
      00013F FE               [12] 1478 	mov	r6,a
      000140 A3               [24] 1479 	inc	dptr
      000141 E0               [24] 1480 	movx	a,@dptr
      000142 FF               [12] 1481 	mov	r7,a
      000143 8A 82            [24] 1482 	mov	dpl,r2
      000145 8B 83            [24] 1483 	mov	dph,r3
      000147 8C F0            [24] 1484 	mov	b,r4
      000149 ED               [12] 1485 	mov	a,r5
      00014A 12r00r00         [24] 1486 	lcall	__gptrput
      00014D A3               [24] 1487 	inc	dptr
      00014E EE               [12] 1488 	mov	a,r6
      00014F 12r00r00         [24] 1489 	lcall	__gptrput
      000152 A3               [24] 1490 	inc	dptr
      000153 EF               [12] 1491 	mov	a,r7
      000154 12r00r00         [24] 1492 	lcall	__gptrput
                                   1493 ;	/opt/contiki/core/net/ip/tcpip.c:311: s->state = appstate;
      000157 74 03            [12] 1494 	mov	a,#0x03
      000159 2A               [12] 1495 	add	a,r2
      00015A FA               [12] 1496 	mov	r2,a
      00015B E4               [12] 1497 	clr	a
      00015C 3B               [12] 1498 	addc	a,r3
      00015D FB               [12] 1499 	mov	r3,a
      00015E 8A 82            [24] 1500 	mov	dpl,r2
      000160 8B 83            [24] 1501 	mov	dph,r3
      000162 8C F0            [24] 1502 	mov	b,r4
      000164 E5 81            [12] 1503 	mov	a,sp
      000166 24 F6            [12] 1504 	add	a,#0xf6
      000168 F8               [12] 1505 	mov	r0,a
      000169 E6               [12] 1506 	mov	a,@r0
      00016A 12r00r00         [24] 1507 	lcall	__gptrput
      00016D A3               [24] 1508 	inc	dptr
      00016E 08               [12] 1509 	inc	r0
      00016F E6               [12] 1510 	mov	a,@r0
      000170 12r00r00         [24] 1511 	lcall	__gptrput
      000173 A3               [24] 1512 	inc	dptr
      000174 08               [12] 1513 	inc	r0
      000175 E6               [12] 1514 	mov	a,@r0
      000176 12r00r00         [24] 1515 	lcall	__gptrput
                                   1516 ;	/opt/contiki/core/net/ip/tcpip.c:313: return c;
      000179 A8 81            [24] 1517 	mov	r0,sp
      00017B 18               [12] 1518 	dec	r0
      00017C 18               [12] 1519 	dec	r0
      00017D 86 82            [24] 1520 	mov	dpl,@r0
      00017F 08               [12] 1521 	inc	r0
      000180 86 83            [24] 1522 	mov	dph,@r0
      000182 08               [12] 1523 	inc	r0
      000183 86 F0            [24] 1524 	mov	b,@r0
      000185                       1525 00103$:
      000185 15 81            [12] 1526 	dec	sp
      000187 15 81            [12] 1527 	dec	sp
      000189 15 81            [12] 1528 	dec	sp
      00018B 02r00r00         [24] 1529 	ljmp	__sdcc_banked_ret
                                   1530 ;------------------------------------------------------------
                                   1531 ;Allocation info for local variables in function 'udp_broadcast_new'
                                   1532 ;------------------------------------------------------------
                                   1533 ;appstate                  Allocated to stack - sp -23
                                   1534 ;port                      Allocated to stack - sp -17
                                   1535 ;addr                      Allocated to stack - sp -15
                                   1536 ;conn                      Allocated to registers r3 r4 r5 
                                   1537 ;------------------------------------------------------------
                                   1538 ;	/opt/contiki/core/net/ip/tcpip.c:317: udp_broadcast_new(uint16_t port, void *appstate)
                                   1539 ;	-----------------------------------------
                                   1540 ;	 function udp_broadcast_new
                                   1541 ;	-----------------------------------------
      00018E                       1542 _udp_broadcast_new:
      00018E C0 82            [24] 1543 	push	dpl
      000190 C0 83            [24] 1544 	push	dph
      000192 E5 81            [12] 1545 	mov	a,sp
      000194 24 10            [12] 1546 	add	a,#0x10
                                   1547 ;	/opt/contiki/core/net/ip/tcpip.c:323: uip_create_linklocal_allnodes_mcast(&addr);
      000196 F5 81            [12] 1548 	mov	sp,a
      000198 24 F1            [12] 1549 	add	a,#0xF1
      00019A F8               [12] 1550 	mov	r0,a
      00019B 76 FF            [12] 1551 	mov	@r0,#0xFF
      00019D 08               [12] 1552 	inc	r0
      00019E 76 02            [12] 1553 	mov	@r0,#0x02
      0001A0 E5 81            [12] 1554 	mov	a,sp
      0001A2 24 F1            [12] 1555 	add	a,#0xF1
      0001A4 FD               [12] 1556 	mov	r5,a
      0001A5 24 02            [12] 1557 	add	a,#0x02
      0001A7 F8               [12] 1558 	mov	r0,a
      0001A8 76 00            [12] 1559 	mov	@r0,#0x00
      0001AA 08               [12] 1560 	inc	r0
      0001AB 76 00            [12] 1561 	mov	@r0,#0x00
      0001AD 74 04            [12] 1562 	mov	a,#0x04
      0001AF 2D               [12] 1563 	add	a,r5
      0001B0 F8               [12] 1564 	mov	r0,a
      0001B1 76 00            [12] 1565 	mov	@r0,#0x00
      0001B3 08               [12] 1566 	inc	r0
      0001B4 76 00            [12] 1567 	mov	@r0,#0x00
      0001B6 74 06            [12] 1568 	mov	a,#0x06
      0001B8 2D               [12] 1569 	add	a,r5
      0001B9 F8               [12] 1570 	mov	r0,a
      0001BA 76 00            [12] 1571 	mov	@r0,#0x00
      0001BC 08               [12] 1572 	inc	r0
      0001BD 76 00            [12] 1573 	mov	@r0,#0x00
      0001BF 74 08            [12] 1574 	mov	a,#0x08
      0001C1 2D               [12] 1575 	add	a,r5
      0001C2 F8               [12] 1576 	mov	r0,a
      0001C3 76 00            [12] 1577 	mov	@r0,#0x00
      0001C5 08               [12] 1578 	inc	r0
      0001C6 76 00            [12] 1579 	mov	@r0,#0x00
      0001C8 74 0A            [12] 1580 	mov	a,#0x0A
      0001CA 2D               [12] 1581 	add	a,r5
      0001CB F8               [12] 1582 	mov	r0,a
      0001CC 76 00            [12] 1583 	mov	@r0,#0x00
      0001CE 08               [12] 1584 	inc	r0
      0001CF 76 00            [12] 1585 	mov	@r0,#0x00
      0001D1 74 0C            [12] 1586 	mov	a,#0x0C
      0001D3 2D               [12] 1587 	add	a,r5
      0001D4 F8               [12] 1588 	mov	r0,a
      0001D5 76 00            [12] 1589 	mov	@r0,#0x00
      0001D7 08               [12] 1590 	inc	r0
      0001D8 76 00            [12] 1591 	mov	@r0,#0x00
      0001DA 74 0E            [12] 1592 	mov	a,#0x0E
      0001DC 2D               [12] 1593 	add	a,r5
      0001DD F8               [12] 1594 	mov	r0,a
      0001DE 76 00            [12] 1595 	mov	@r0,#0x00
      0001E0 08               [12] 1596 	inc	r0
      0001E1 76 01            [12] 1597 	mov	@r0,#0x01
                                   1598 ;	/opt/contiki/core/net/ip/tcpip.c:327: conn = udp_new(&addr, port, appstate);
      0001E3 E5 81            [12] 1599 	mov	a,sp
      0001E5 24 F1            [12] 1600 	add	a,#0xF1
      0001E7 FD               [12] 1601 	mov	r5,a
      0001E8 7C 00            [12] 1602 	mov	r4,#0x00
      0001EA 7B 40            [12] 1603 	mov	r3,#0x40
      0001EC E5 81            [12] 1604 	mov	a,sp
      0001EE 24 E9            [12] 1605 	add	a,#0xe9
      0001F0 F8               [12] 1606 	mov	r0,a
      0001F1 E6               [12] 1607 	mov	a,@r0
      0001F2 C0 E0            [24] 1608 	push	acc
      0001F4 08               [12] 1609 	inc	r0
      0001F5 E6               [12] 1610 	mov	a,@r0
      0001F6 C0 E0            [24] 1611 	push	acc
      0001F8 08               [12] 1612 	inc	r0
      0001F9 E6               [12] 1613 	mov	a,@r0
      0001FA C0 E0            [24] 1614 	push	acc
      0001FC E5 81            [12] 1615 	mov	a,sp
      0001FE 24 EC            [12] 1616 	add	a,#0xec
      000200 F8               [12] 1617 	mov	r0,a
      000201 E6               [12] 1618 	mov	a,@r0
      000202 C0 E0            [24] 1619 	push	acc
      000204 08               [12] 1620 	inc	r0
      000205 E6               [12] 1621 	mov	a,@r0
      000206 C0 E0            [24] 1622 	push	acc
      000208 8D 82            [24] 1623 	mov	dpl,r5
      00020A 8C 83            [24] 1624 	mov	dph,r4
      00020C 8B F0            [24] 1625 	mov	b,r3
      00020E 78rDC            [12] 1626 	mov	r0,#_udp_new
      000210 79s00            [12] 1627 	mov	r1,#(_udp_new >> 8)
      000212 7As00            [12] 1628 	mov	r2,#(_udp_new >> 16)
      000214 12r00r00         [24] 1629 	lcall	__sdcc_banked_call
      000217 AB 82            [24] 1630 	mov	r3,dpl
      000219 AC 83            [24] 1631 	mov	r4,dph
      00021B AD F0            [24] 1632 	mov	r5,b
      00021D E5 81            [12] 1633 	mov	a,sp
      00021F 24 FB            [12] 1634 	add	a,#0xfb
      000221 F5 81            [12] 1635 	mov	sp,a
                                   1636 ;	/opt/contiki/core/net/ip/tcpip.c:328: if(conn != NULL) {
      000223 EB               [12] 1637 	mov	a,r3
      000224 4C               [12] 1638 	orl	a,r4
      000225 60 1E            [24] 1639 	jz	00105$
                                   1640 ;	/opt/contiki/core/net/ip/tcpip.c:329: udp_bind(conn, port);
      000227 74 10            [12] 1641 	mov	a,#0x10
      000229 2B               [12] 1642 	add	a,r3
      00022A FA               [12] 1643 	mov	r2,a
      00022B E4               [12] 1644 	clr	a
      00022C 3C               [12] 1645 	addc	a,r4
      00022D FE               [12] 1646 	mov	r6,a
      00022E 8D 07            [24] 1647 	mov	ar7,r5
      000230 8A 82            [24] 1648 	mov	dpl,r2
      000232 8E 83            [24] 1649 	mov	dph,r6
      000234 8F F0            [24] 1650 	mov	b,r7
      000236 E5 81            [12] 1651 	mov	a,sp
      000238 24 EF            [12] 1652 	add	a,#0xef
      00023A F8               [12] 1653 	mov	r0,a
      00023B E6               [12] 1654 	mov	a,@r0
      00023C 12r00r00         [24] 1655 	lcall	__gptrput
      00023F A3               [24] 1656 	inc	dptr
      000240 08               [12] 1657 	inc	r0
      000241 E6               [12] 1658 	mov	a,@r0
      000242 12r00r00         [24] 1659 	lcall	__gptrput
      000245                       1660 00105$:
                                   1661 ;	/opt/contiki/core/net/ip/tcpip.c:331: return conn;
      000245 8B 82            [24] 1662 	mov	dpl,r3
      000247 8C 83            [24] 1663 	mov	dph,r4
      000249 8D F0            [24] 1664 	mov	b,r5
      00024B C8               [12] 1665 	xch	a,r0
      00024C E5 81            [12] 1666 	mov	a,sp
      00024E 24 EE            [12] 1667 	add	a,#0xEE
      000250 F5 81            [12] 1668 	mov	sp,a
      000252 C8               [12] 1669 	xch	a,r0
      000253 02r00r00         [24] 1670 	ljmp	__sdcc_banked_ret
                                   1671 ;------------------------------------------------------------
                                   1672 ;Allocation info for local variables in function 'icmp6_new'
                                   1673 ;------------------------------------------------------------
                                   1674 ;appstate                  Allocated to registers r5 r6 r7 
                                   1675 ;------------------------------------------------------------
                                   1676 ;	/opt/contiki/core/net/ip/tcpip.c:337: icmp6_new(void *appstate) {
                                   1677 ;	-----------------------------------------
                                   1678 ;	 function icmp6_new
                                   1679 ;	-----------------------------------------
      000256                       1680 _icmp6_new:
      000256 AD 82            [24] 1681 	mov	r5,dpl
      000258 AE 83            [24] 1682 	mov	r6,dph
      00025A AF F0            [24] 1683 	mov	r7,b
                                   1684 ;	/opt/contiki/core/net/ip/tcpip.c:338: if(uip_icmp6_conns.appstate.p == PROCESS_NONE) {
      00025C 90r00r00         [24] 1685 	mov	dptr,#_uip_icmp6_conns
      00025F E0               [24] 1686 	movx	a,@dptr
      000260 FA               [12] 1687 	mov	r2,a
      000261 A3               [24] 1688 	inc	dptr
      000262 E0               [24] 1689 	movx	a,@dptr
      000263 FB               [12] 1690 	mov	r3,a
      000264 A3               [24] 1691 	inc	dptr
      000265 E0               [24] 1692 	movx	a,@dptr
      000266 FC               [12] 1693 	mov	r4,a
      000267 EA               [12] 1694 	mov	a,r2
      000268 4B               [12] 1695 	orl	a,r3
      000269 70 26            [24] 1696 	jnz	00102$
                                   1697 ;	/opt/contiki/core/net/ip/tcpip.c:339: uip_icmp6_conns.appstate.p = PROCESS_CURRENT();
      00026B 90r00r00         [24] 1698 	mov	dptr,#_process_current
      00026E E0               [24] 1699 	movx	a,@dptr
      00026F FA               [12] 1700 	mov	r2,a
      000270 A3               [24] 1701 	inc	dptr
      000271 E0               [24] 1702 	movx	a,@dptr
      000272 FB               [12] 1703 	mov	r3,a
      000273 A3               [24] 1704 	inc	dptr
      000274 E0               [24] 1705 	movx	a,@dptr
      000275 FC               [12] 1706 	mov	r4,a
      000276 90r00r00         [24] 1707 	mov	dptr,#_uip_icmp6_conns
      000279 EA               [12] 1708 	mov	a,r2
      00027A F0               [24] 1709 	movx	@dptr,a
      00027B EB               [12] 1710 	mov	a,r3
      00027C A3               [24] 1711 	inc	dptr
      00027D F0               [24] 1712 	movx	@dptr,a
      00027E EC               [12] 1713 	mov	a,r4
      00027F A3               [24] 1714 	inc	dptr
      000280 F0               [24] 1715 	movx	@dptr,a
                                   1716 ;	/opt/contiki/core/net/ip/tcpip.c:340: uip_icmp6_conns.appstate.state = appstate;
      000281 90r00r03         [24] 1717 	mov	dptr,#(_uip_icmp6_conns + 0x0003)
      000284 ED               [12] 1718 	mov	a,r5
      000285 F0               [24] 1719 	movx	@dptr,a
      000286 EE               [12] 1720 	mov	a,r6
      000287 A3               [24] 1721 	inc	dptr
      000288 F0               [24] 1722 	movx	@dptr,a
      000289 EF               [12] 1723 	mov	a,r7
      00028A A3               [24] 1724 	inc	dptr
      00028B F0               [24] 1725 	movx	@dptr,a
                                   1726 ;	/opt/contiki/core/net/ip/tcpip.c:341: return 0;
      00028C 75 82 00         [24] 1727 	mov	dpl,#0x00
      00028F 80 03            [24] 1728 	sjmp	00103$
      000291                       1729 00102$:
                                   1730 ;	/opt/contiki/core/net/ip/tcpip.c:343: return 1;
      000291 75 82 01         [24] 1731 	mov	dpl,#0x01
      000294                       1732 00103$:
      000294 02r00r00         [24] 1733 	ljmp	__sdcc_banked_ret
                                   1734 ;------------------------------------------------------------
                                   1735 ;Allocation info for local variables in function 'tcpip_icmp6_call'
                                   1736 ;------------------------------------------------------------
                                   1737 ;type                      Allocated to stack - sp +0
                                   1738 ;------------------------------------------------------------
                                   1739 ;	/opt/contiki/core/net/ip/tcpip.c:347: tcpip_icmp6_call(uint8_t type)
                                   1740 ;	-----------------------------------------
                                   1741 ;	 function tcpip_icmp6_call
                                   1742 ;	-----------------------------------------
      000297                       1743 _tcpip_icmp6_call:
      000297 C0 82            [24] 1744 	push	dpl
                                   1745 ;	/opt/contiki/core/net/ip/tcpip.c:349: if(uip_icmp6_conns.appstate.p != PROCESS_NONE) {
      000299 90r00r00         [24] 1746 	mov	dptr,#_uip_icmp6_conns
      00029C E0               [24] 1747 	movx	a,@dptr
      00029D FD               [12] 1748 	mov	r5,a
      00029E A3               [24] 1749 	inc	dptr
      00029F E0               [24] 1750 	movx	a,@dptr
      0002A0 FE               [12] 1751 	mov	r6,a
      0002A1 A3               [24] 1752 	inc	dptr
      0002A2 E0               [24] 1753 	movx	a,@dptr
      0002A3 FF               [12] 1754 	mov	r7,a
      0002A4 ED               [12] 1755 	mov	a,r5
      0002A5 4E               [12] 1756 	orl	a,r6
      0002A6 60 27            [24] 1757 	jz	00102$
                                   1758 ;	/opt/contiki/core/net/ip/tcpip.c:352: process_post_synch(uip_icmp6_conns.appstate.p, tcpip_icmp6_event, &type);
      0002A8 AC 81            [24] 1759 	mov	r4,sp
      0002AA 7B 00            [12] 1760 	mov	r3,#0x00
      0002AC 7A 40            [12] 1761 	mov	r2,#0x40
      0002AE C0 04            [24] 1762 	push	ar4
      0002B0 C0 03            [24] 1763 	push	ar3
      0002B2 C0 02            [24] 1764 	push	ar2
      0002B4 90r00r01         [24] 1765 	mov	dptr,#_tcpip_icmp6_event
      0002B7 E0               [24] 1766 	movx	a,@dptr
      0002B8 C0 E0            [24] 1767 	push	acc
      0002BA 8D 82            [24] 1768 	mov	dpl,r5
      0002BC 8E 83            [24] 1769 	mov	dph,r6
      0002BE 8F F0            [24] 1770 	mov	b,r7
      0002C0 78r00            [12] 1771 	mov	r0,#_process_post_synch
      0002C2 79s00            [12] 1772 	mov	r1,#(_process_post_synch >> 8)
      0002C4 7As00            [12] 1773 	mov	r2,#(_process_post_synch >> 16)
      0002C6 12r00r00         [24] 1774 	lcall	__sdcc_banked_call
      0002C9 E5 81            [12] 1775 	mov	a,sp
      0002CB 24 FC            [12] 1776 	add	a,#0xfc
      0002CD F5 81            [12] 1777 	mov	sp,a
      0002CF                       1778 00102$:
                                   1779 ;	/opt/contiki/core/net/ip/tcpip.c:354: return;
      0002CF 15 81            [12] 1780 	dec	sp
      0002D1 02r00r00         [24] 1781 	ljmp	__sdcc_banked_ret
                                   1782 ;------------------------------------------------------------
                                   1783 ;Allocation info for local variables in function 'eventhandler'
                                   1784 ;------------------------------------------------------------
                                   1785 ;data                      Allocated to stack - sp -8
                                   1786 ;ev                        Allocated to registers r7 
                                   1787 ;p                         Allocated to stack - sp -2
                                   1788 ;cptr                      Allocated to registers 
                                   1789 ;------------------------------------------------------------
                                   1790 ;	/opt/contiki/core/net/ip/tcpip.c:359: eventhandler(process_event_t ev, process_data_t data)
                                   1791 ;	-----------------------------------------
                                   1792 ;	 function eventhandler
                                   1793 ;	-----------------------------------------
      0002D4                       1794 _eventhandler:
      0002D4 05 81            [12] 1795 	inc	sp
      0002D6 05 81            [12] 1796 	inc	sp
      0002D8 05 81            [12] 1797 	inc	sp
      0002DA AF 82            [24] 1798 	mov	r7,dpl
                                   1799 ;	/opt/contiki/core/net/ip/tcpip.c:367: switch(ev) {
      0002DC BF 01 03         [24] 1800 	cjne	r7,#0x01,00159$
      0002DF 02r04r10         [24] 1801 	ljmp	00112$
      0002E2                       1802 00159$:
      0002E2 BF 02 03         [24] 1803 	cjne	r7,#0x02,00160$
      0002E5 02r04r43         [24] 1804 	ljmp	00118$
      0002E8                       1805 00160$:
      0002E8 BF 87 02         [24] 1806 	cjne	r7,#0x87,00161$
      0002EB 80 09            [24] 1807 	sjmp	00101$
      0002ED                       1808 00161$:
      0002ED BF 88 03         [24] 1809 	cjne	r7,#0x88,00162$
      0002F0 02r03r8B         [24] 1810 	ljmp	00105$
      0002F3                       1811 00162$:
      0002F3 02r04r4C         [24] 1812 	ljmp	00123$
                                   1813 ;	/opt/contiki/core/net/ip/tcpip.c:368: case PROCESS_EVENT_EXITED:
      0002F6                       1814 00101$:
                                   1815 ;	/opt/contiki/core/net/ip/tcpip.c:374: p = (struct process *)data;
      0002F6 E5 81            [12] 1816 	mov	a,sp
      0002F8 24 F8            [12] 1817 	add	a,#0xf8
      0002FA F8               [12] 1818 	mov	r0,a
      0002FB A9 81            [24] 1819 	mov	r1,sp
      0002FD 19               [12] 1820 	dec	r1
      0002FE 19               [12] 1821 	dec	r1
      0002FF E6               [12] 1822 	mov	a,@r0
      000300 F7               [12] 1823 	mov	@r1,a
      000301 08               [12] 1824 	inc	r0
      000302 09               [12] 1825 	inc	r1
      000303 E6               [12] 1826 	mov	a,@r0
      000304 F7               [12] 1827 	mov	@r1,a
      000305 08               [12] 1828 	inc	r0
      000306 09               [12] 1829 	inc	r1
      000307 E6               [12] 1830 	mov	a,@r0
      000308 F7               [12] 1831 	mov	@r1,a
                                   1832 ;	/opt/contiki/core/net/ip/tcpip.c:401: for(cptr = &uip_udp_conns[0];
      000309 7Ar00            [12] 1833 	mov	r2,#_uip_udp_conns
      00030B 7Bs00            [12] 1834 	mov	r3,#(_uip_udp_conns >> 8)
      00030D 7C 00            [12] 1835 	mov	r4,#0x00
      00030F                       1836 00121$:
                                   1837 ;	/opt/contiki/core/net/ip/tcpip.c:402: cptr < &uip_udp_conns[UIP_UDP_CONNS]; ++cptr) {
      00030F 74r0E            [12] 1838 	mov	a,#(_uip_udp_conns + 0x010e)
      000311 C0 E0            [24] 1839 	push	acc
      000313 74s01            [12] 1840 	mov	a,#((_uip_udp_conns + 0x010e) >> 8)
      000315 C0 E0            [24] 1841 	push	acc
      000317 E4               [12] 1842 	clr	a
      000318 C0 E0            [24] 1843 	push	acc
      00031A 8A 82            [24] 1844 	mov	dpl,r2
      00031C 8B 83            [24] 1845 	mov	dph,r3
      00031E 8C F0            [24] 1846 	mov	b,r4
      000320 12r00r00         [24] 1847 	lcall	___gptr_cmp
      000323 15 81            [12] 1848 	dec	sp
      000325 15 81            [12] 1849 	dec	sp
      000327 15 81            [12] 1850 	dec	sp
      000329 40 03            [24] 1851 	jc	00163$
      00032B 02r04r4C         [24] 1852 	ljmp	00123$
      00032E                       1853 00163$:
                                   1854 ;	/opt/contiki/core/net/ip/tcpip.c:403: if(cptr->appstate.p == p) {
      00032E 74 15            [12] 1855 	mov	a,#0x15
      000330 2A               [12] 1856 	add	a,r2
      000331 FD               [12] 1857 	mov	r5,a
      000332 E4               [12] 1858 	clr	a
      000333 3B               [12] 1859 	addc	a,r3
      000334 FE               [12] 1860 	mov	r6,a
      000335 8C 07            [24] 1861 	mov	ar7,r4
      000337 8D 82            [24] 1862 	mov	dpl,r5
      000339 8E 83            [24] 1863 	mov	dph,r6
      00033B 8F F0            [24] 1864 	mov	b,r7
      00033D 12r00r00         [24] 1865 	lcall	__gptrget
      000340 FD               [12] 1866 	mov	r5,a
      000341 A3               [24] 1867 	inc	dptr
      000342 12r00r00         [24] 1868 	lcall	__gptrget
      000345 FE               [12] 1869 	mov	r6,a
      000346 A3               [24] 1870 	inc	dptr
      000347 12r00r00         [24] 1871 	lcall	__gptrget
      00034A FF               [12] 1872 	mov	r7,a
      00034B A8 81            [24] 1873 	mov	r0,sp
      00034D 18               [12] 1874 	dec	r0
      00034E 18               [12] 1875 	dec	r0
      00034F C0 05            [24] 1876 	push	ar5
      000351 C0 06            [24] 1877 	push	ar6
      000353 C0 07            [24] 1878 	push	ar7
      000355 86 82            [24] 1879 	mov	dpl,@r0
      000357 08               [12] 1880 	inc	r0
      000358 86 83            [24] 1881 	mov	dph,@r0
      00035A 08               [12] 1882 	inc	r0
      00035B 86 F0            [24] 1883 	mov	b,@r0
      00035D 12r00r00         [24] 1884 	lcall	___gptr_cmp
      000360 15 81            [12] 1885 	dec	sp
      000362 15 81            [12] 1886 	dec	sp
      000364 15 81            [12] 1887 	dec	sp
      000366 60 02            [24] 1888 	jz	00165$
      000368 80 17            [24] 1889 	sjmp	00122$
      00036A                       1890 00165$:
                                   1891 ;	/opt/contiki/core/net/ip/tcpip.c:404: cptr->lport = 0;
      00036A 74 10            [12] 1892 	mov	a,#0x10
      00036C 2A               [12] 1893 	add	a,r2
      00036D FD               [12] 1894 	mov	r5,a
      00036E E4               [12] 1895 	clr	a
      00036F 3B               [12] 1896 	addc	a,r3
      000370 FE               [12] 1897 	mov	r6,a
      000371 8C 07            [24] 1898 	mov	ar7,r4
      000373 8D 82            [24] 1899 	mov	dpl,r5
      000375 8E 83            [24] 1900 	mov	dph,r6
      000377 8F F0            [24] 1901 	mov	b,r7
      000379 E4               [12] 1902 	clr	a
      00037A 12r00r00         [24] 1903 	lcall	__gptrput
      00037D A3               [24] 1904 	inc	dptr
      00037E 12r00r00         [24] 1905 	lcall	__gptrput
      000381                       1906 00122$:
                                   1907 ;	/opt/contiki/core/net/ip/tcpip.c:402: cptr < &uip_udp_conns[UIP_UDP_CONNS]; ++cptr) {
      000381 74 1B            [12] 1908 	mov	a,#0x1B
      000383 2A               [12] 1909 	add	a,r2
      000384 FA               [12] 1910 	mov	r2,a
      000385 E4               [12] 1911 	clr	a
      000386 3B               [12] 1912 	addc	a,r3
      000387 FB               [12] 1913 	mov	r3,a
      000388 02r03r0F         [24] 1914 	ljmp	00121$
                                   1915 ;	/opt/contiki/core/net/ip/tcpip.c:411: case PROCESS_EVENT_TIMER:
      00038B                       1916 00105$:
                                   1917 ;	/opt/contiki/core/net/ip/tcpip.c:416: if(data == &periodic &&
      00038B E5 81            [12] 1918 	mov	a,sp
      00038D 24 F8            [12] 1919 	add	a,#0xf8
      00038F F8               [12] 1920 	mov	r0,a
      000390 74r02            [12] 1921 	mov	a,#_periodic
      000392 C0 E0            [24] 1922 	push	acc
      000394 74s00            [12] 1923 	mov	a,#(_periodic >> 8)
      000396 C0 E0            [24] 1924 	push	acc
      000398 E4               [12] 1925 	clr	a
      000399 C0 E0            [24] 1926 	push	acc
      00039B 86 82            [24] 1927 	mov	dpl,@r0
      00039D 08               [12] 1928 	inc	r0
      00039E 86 83            [24] 1929 	mov	dph,@r0
      0003A0 08               [12] 1930 	inc	r0
      0003A1 86 F0            [24] 1931 	mov	b,@r0
      0003A3 12r00r00         [24] 1932 	lcall	___gptr_cmp
      0003A6 15 81            [12] 1933 	dec	sp
      0003A8 15 81            [12] 1934 	dec	sp
      0003AA 15 81            [12] 1935 	dec	sp
      0003AC 60 02            [24] 1936 	jz	00167$
      0003AE 80 0F            [24] 1937 	sjmp	00107$
      0003B0                       1938 00167$:
                                   1939 ;	/opt/contiki/core/net/ip/tcpip.c:417: etimer_expired(&periodic)) {
      0003B0 90r00r02         [24] 1940 	mov	dptr,#_periodic
      0003B3 75 F0 00         [24] 1941 	mov	b,#0x00
      0003B6 78r00            [12] 1942 	mov	r0,#_etimer_expired
      0003B8 79s00            [12] 1943 	mov	r1,#(_etimer_expired >> 8)
      0003BA 7As00            [12] 1944 	mov	r2,#(_etimer_expired >> 16)
      0003BC 12r00r00         [24] 1945 	lcall	__sdcc_banked_call
      0003BF                       1946 00107$:
                                   1947 ;	/opt/contiki/core/net/ip/tcpip.c:469: if(data == &uip_ds6_timer_periodic &&
      0003BF E5 81            [12] 1948 	mov	a,sp
      0003C1 24 F8            [12] 1949 	add	a,#0xf8
      0003C3 F8               [12] 1950 	mov	r0,a
      0003C4 74r00            [12] 1951 	mov	a,#_uip_ds6_timer_periodic
      0003C6 C0 E0            [24] 1952 	push	acc
      0003C8 74s00            [12] 1953 	mov	a,#(_uip_ds6_timer_periodic >> 8)
      0003CA C0 E0            [24] 1954 	push	acc
      0003CC E4               [12] 1955 	clr	a
      0003CD C0 E0            [24] 1956 	push	acc
      0003CF 86 82            [24] 1957 	mov	dpl,@r0
      0003D1 08               [12] 1958 	inc	r0
      0003D2 86 83            [24] 1959 	mov	dph,@r0
      0003D4 08               [12] 1960 	inc	r0
      0003D5 86 F0            [24] 1961 	mov	b,@r0
      0003D7 12r00r00         [24] 1962 	lcall	___gptr_cmp
      0003DA 15 81            [12] 1963 	dec	sp
      0003DC 15 81            [12] 1964 	dec	sp
      0003DE 15 81            [12] 1965 	dec	sp
      0003E0 60 02            [24] 1966 	jz	00169$
      0003E2 80 68            [24] 1967 	sjmp	00123$
      0003E4                       1968 00169$:
                                   1969 ;	/opt/contiki/core/net/ip/tcpip.c:470: etimer_expired(&uip_ds6_timer_periodic)) {
      0003E4 90r00r00         [24] 1970 	mov	dptr,#_uip_ds6_timer_periodic
      0003E7 75 F0 00         [24] 1971 	mov	b,#0x00
      0003EA 78r00            [12] 1972 	mov	r0,#_etimer_expired
      0003EC 79s00            [12] 1973 	mov	r1,#(_etimer_expired >> 8)
      0003EE 7As00            [12] 1974 	mov	r2,#(_etimer_expired >> 16)
      0003F0 12r00r00         [24] 1975 	lcall	__sdcc_banked_call
      0003F3 E5 82            [12] 1976 	mov	a,dpl
      0003F5 85 83 F0         [24] 1977 	mov	b,dph
      0003F8 45 F0            [12] 1978 	orl	a,b
      0003FA 60 50            [24] 1979 	jz	00123$
                                   1980 ;	/opt/contiki/core/net/ip/tcpip.c:471: uip_ds6_periodic();
      0003FC 78r00            [12] 1981 	mov	r0,#_uip_ds6_periodic
      0003FE 79s00            [12] 1982 	mov	r1,#(_uip_ds6_periodic >> 8)
      000400 7As00            [12] 1983 	mov	r2,#(_uip_ds6_periodic >> 16)
      000402 12r00r00         [24] 1984 	lcall	__sdcc_banked_call
                                   1985 ;	/opt/contiki/core/net/ip/tcpip.c:472: tcpip_ipv6_output();
      000405 78r83            [12] 1986 	mov	r0,#_tcpip_ipv6_output
      000407 79s04            [12] 1987 	mov	r1,#(_tcpip_ipv6_output >> 8)
      000409 7As00            [12] 1988 	mov	r2,#(_tcpip_ipv6_output >> 16)
      00040B 12r00r00         [24] 1989 	lcall	__sdcc_banked_call
                                   1990 ;	/opt/contiki/core/net/ip/tcpip.c:476: break;
                                   1991 ;	/opt/contiki/core/net/ip/tcpip.c:496: case UDP_POLL:
      00040E 80 3C            [24] 1992 	sjmp	00123$
      000410                       1993 00112$:
                                   1994 ;	/opt/contiki/core/net/ip/tcpip.c:497: if(data != NULL) {
      000410 E5 81            [12] 1995 	mov	a,sp
      000412 24 F8            [12] 1996 	add	a,#0xf8
      000414 F8               [12] 1997 	mov	r0,a
      000415 E6               [12] 1998 	mov	a,@r0
      000416 08               [12] 1999 	inc	r0
      000417 46               [12] 2000 	orl	a,@r0
      000418 60 32            [24] 2001 	jz	00123$
                                   2002 ;	/opt/contiki/core/net/ip/tcpip.c:498: uip_udp_periodic_conn(data);
      00041A E5 81            [12] 2003 	mov	a,sp
      00041C 24 F8            [12] 2004 	add	a,#0xf8
      00041E F8               [12] 2005 	mov	r0,a
      00041F 90r00r00         [24] 2006 	mov	dptr,#_uip_udp_conn
      000422 E6               [12] 2007 	mov	a,@r0
      000423 F0               [24] 2008 	movx	@dptr,a
      000424 08               [12] 2009 	inc	r0
      000425 E6               [12] 2010 	mov	a,@r0
      000426 A3               [24] 2011 	inc	dptr
      000427 F0               [24] 2012 	movx	@dptr,a
      000428 08               [12] 2013 	inc	r0
      000429 E6               [12] 2014 	mov	a,@r0
      00042A A3               [24] 2015 	inc	dptr
      00042B F0               [24] 2016 	movx	@dptr,a
      00042C 75 82 05         [24] 2017 	mov	dpl,#0x05
      00042F 78r00            [12] 2018 	mov	r0,#_uip_process
      000431 79s00            [12] 2019 	mov	r1,#(_uip_process >> 8)
      000433 7As00            [12] 2020 	mov	r2,#(_uip_process >> 16)
      000435 12r00r00         [24] 2021 	lcall	__sdcc_banked_call
                                   2022 ;	/opt/contiki/core/net/ip/tcpip.c:500: tcpip_ipv6_output();
      000438 78r83            [12] 2023 	mov	r0,#_tcpip_ipv6_output
      00043A 79s04            [12] 2024 	mov	r1,#(_tcpip_ipv6_output >> 8)
      00043C 7As00            [12] 2025 	mov	r2,#(_tcpip_ipv6_output >> 16)
      00043E 12r00r00         [24] 2026 	lcall	__sdcc_banked_call
                                   2027 ;	/opt/contiki/core/net/ip/tcpip.c:507: break;
                                   2028 ;	/opt/contiki/core/net/ip/tcpip.c:510: case PACKET_INPUT:
      000441 80 09            [24] 2029 	sjmp	00123$
      000443                       2030 00118$:
                                   2031 ;	/opt/contiki/core/net/ip/tcpip.c:511: packet_input();
      000443 78r54            [12] 2032 	mov	r0,#_packet_input
      000445 79s00            [12] 2033 	mov	r1,#(_packet_input >> 8)
      000447 7As00            [12] 2034 	mov	r2,#(_packet_input >> 16)
      000449 12r00r00         [24] 2035 	lcall	__sdcc_banked_call
                                   2036 ;	/opt/contiki/core/net/ip/tcpip.c:513: };
      00044C                       2037 00123$:
      00044C 15 81            [12] 2038 	dec	sp
      00044E 15 81            [12] 2039 	dec	sp
      000450 15 81            [12] 2040 	dec	sp
      000452 02r00r00         [24] 2041 	ljmp	__sdcc_banked_ret
                                   2042 ;------------------------------------------------------------
                                   2043 ;Allocation info for local variables in function 'tcpip_input'
                                   2044 ;------------------------------------------------------------
                                   2045 ;	/opt/contiki/core/net/ip/tcpip.c:517: tcpip_input(void)
                                   2046 ;	-----------------------------------------
                                   2047 ;	 function tcpip_input
                                   2048 ;	-----------------------------------------
      000455                       2049 _tcpip_input:
                                   2050 ;	/opt/contiki/core/net/ip/tcpip.c:519: process_post_synch(&tcpip_process, PACKET_INPUT, NULL);
      000455 E4               [12] 2051 	clr	a
      000456 C0 E0            [24] 2052 	push	acc
      000458 C0 E0            [24] 2053 	push	acc
      00045A C0 E0            [24] 2054 	push	acc
      00045C 74 02            [12] 2055 	mov	a,#0x02
      00045E C0 E0            [24] 2056 	push	acc
      000460 90r00r00         [24] 2057 	mov	dptr,#_tcpip_process
      000463 75 F0 00         [24] 2058 	mov	b,#0x00
      000466 78r00            [12] 2059 	mov	r0,#_process_post_synch
      000468 79s00            [12] 2060 	mov	r1,#(_process_post_synch >> 8)
      00046A 7As00            [12] 2061 	mov	r2,#(_process_post_synch >> 16)
      00046C 12r00r00         [24] 2062 	lcall	__sdcc_banked_call
      00046F E5 81            [12] 2063 	mov	a,sp
      000471 24 FC            [12] 2064 	add	a,#0xfc
      000473 F5 81            [12] 2065 	mov	sp,a
                                   2066 ;	/opt/contiki/core/net/ip/tcpip.c:520: uip_clear_buf();
      000475 90r00r00         [24] 2067 	mov	dptr,#_uip_len
      000478 E4               [12] 2068 	clr	a
      000479 F0               [24] 2069 	movx	@dptr,a
      00047A A3               [24] 2070 	inc	dptr
      00047B F0               [24] 2071 	movx	@dptr,a
      00047C 90r00r00         [24] 2072 	mov	dptr,#_uip_ext_len
      00047F F0               [24] 2073 	movx	@dptr,a
      000480 02r00r00         [24] 2074 	ljmp	__sdcc_banked_ret
                                   2075 ;------------------------------------------------------------
                                   2076 ;Allocation info for local variables in function 'tcpip_ipv6_output'
                                   2077 ;------------------------------------------------------------
                                   2078 ;nbr                       Allocated to stack - sp -5
                                   2079 ;nexthop                   Allocated to registers r5 r6 r7 
                                   2080 ;route                     Allocated to stack - sp -2
                                   2081 ;dag                       Allocated to registers r2 r3 r4 
                                   2082 ;instance                  Allocated to registers r2 r3 r4 
                                   2083 ;sloc0                     Allocated to stack - sp +6
                                   2084 ;sloc1                     Allocated to stack - sp -9
                                   2085 ;------------------------------------------------------------
                                   2086 ;	/opt/contiki/core/net/ip/tcpip.c:525: tcpip_ipv6_output(void)
                                   2087 ;	-----------------------------------------
                                   2088 ;	 function tcpip_ipv6_output
                                   2089 ;	-----------------------------------------
      000483                       2090 _tcpip_ipv6_output:
      000483 E5 81            [12] 2091 	mov	a,sp
      000485 24 0A            [12] 2092 	add	a,#0x0A
      000487 F5 81            [12] 2093 	mov	sp,a
                                   2094 ;	/opt/contiki/core/net/ip/tcpip.c:530: if(uip_len == 0) {
      000489 90r00r00         [24] 2095 	mov	dptr,#_uip_len
      00048C E0               [24] 2096 	movx	a,@dptr
      00048D FE               [12] 2097 	mov	r6,a
      00048E A3               [24] 2098 	inc	dptr
      00048F E0               [24] 2099 	movx	a,@dptr
      000490 FF               [12] 2100 	mov	r7,a
      000491 90r00r00         [24] 2101 	mov	dptr,#_uip_len
      000494 E0               [24] 2102 	movx	a,@dptr
      000495 F5 F0            [12] 2103 	mov	b,a
      000497 A3               [24] 2104 	inc	dptr
      000498 E0               [24] 2105 	movx	a,@dptr
      000499 45 F0            [12] 2106 	orl	a,b
      00049B 70 03            [24] 2107 	jnz	00102$
                                   2108 ;	/opt/contiki/core/net/ip/tcpip.c:531: return;
      00049D 02r08rBE         [24] 2109 	ljmp	00143$
      0004A0                       2110 00102$:
                                   2111 ;	/opt/contiki/core/net/ip/tcpip.c:534: if(uip_len > UIP_LINK_MTU) {
      0004A0 C3               [12] 2112 	clr	c
      0004A1 E4               [12] 2113 	clr	a
      0004A2 9E               [12] 2114 	subb	a,r6
      0004A3 74 05            [12] 2115 	mov	a,#0x05
      0004A5 9F               [12] 2116 	subb	a,r7
      0004A6 50 0E            [24] 2117 	jnc	00104$
                                   2118 ;	/opt/contiki/core/net/ip/tcpip.c:536: uip_clear_buf();
      0004A8 90r00r00         [24] 2119 	mov	dptr,#_uip_len
      0004AB E4               [12] 2120 	clr	a
      0004AC F0               [24] 2121 	movx	@dptr,a
      0004AD A3               [24] 2122 	inc	dptr
      0004AE F0               [24] 2123 	movx	@dptr,a
      0004AF 90r00r00         [24] 2124 	mov	dptr,#_uip_ext_len
      0004B2 F0               [24] 2125 	movx	@dptr,a
                                   2126 ;	/opt/contiki/core/net/ip/tcpip.c:537: return;
      0004B3 02r08rBE         [24] 2127 	ljmp	00143$
      0004B6                       2128 00104$:
                                   2129 ;	/opt/contiki/core/net/ip/tcpip.c:540: if(uip_is_addr_unspecified(&UIP_IP_BUF->destipaddr)){
      0004B6 90r00r18         [24] 2130 	mov	dptr,#(_uip_aligned_buf + 0x0018)
      0004B9 E0               [24] 2131 	movx	a,@dptr
      0004BA FE               [12] 2132 	mov	r6,a
      0004BB A3               [24] 2133 	inc	dptr
      0004BC E0               [24] 2134 	movx	a,@dptr
      0004BD FF               [12] 2135 	mov	r7,a
      0004BE 4E               [12] 2136 	orl	a,r6
      0004BF 70 5B            [24] 2137 	jnz	00106$
      0004C1 90r00r1A         [24] 2138 	mov	dptr,#(_uip_aligned_buf + 0x001a)
      0004C4 E0               [24] 2139 	movx	a,@dptr
      0004C5 FE               [12] 2140 	mov	r6,a
      0004C6 A3               [24] 2141 	inc	dptr
      0004C7 E0               [24] 2142 	movx	a,@dptr
      0004C8 FF               [12] 2143 	mov	r7,a
      0004C9 4E               [12] 2144 	orl	a,r6
      0004CA 70 50            [24] 2145 	jnz	00106$
      0004CC 90r00r1C         [24] 2146 	mov	dptr,#(_uip_aligned_buf + 0x001c)
      0004CF E0               [24] 2147 	movx	a,@dptr
      0004D0 FE               [12] 2148 	mov	r6,a
      0004D1 A3               [24] 2149 	inc	dptr
      0004D2 E0               [24] 2150 	movx	a,@dptr
      0004D3 FF               [12] 2151 	mov	r7,a
      0004D4 4E               [12] 2152 	orl	a,r6
      0004D5 70 45            [24] 2153 	jnz	00106$
      0004D7 90r00r1E         [24] 2154 	mov	dptr,#(_uip_aligned_buf + 0x001e)
      0004DA E0               [24] 2155 	movx	a,@dptr
      0004DB FE               [12] 2156 	mov	r6,a
      0004DC A3               [24] 2157 	inc	dptr
      0004DD E0               [24] 2158 	movx	a,@dptr
      0004DE FF               [12] 2159 	mov	r7,a
      0004DF 4E               [12] 2160 	orl	a,r6
      0004E0 70 3A            [24] 2161 	jnz	00106$
      0004E2 90r00r20         [24] 2162 	mov	dptr,#(_uip_aligned_buf + 0x0020)
      0004E5 E0               [24] 2163 	movx	a,@dptr
      0004E6 FE               [12] 2164 	mov	r6,a
      0004E7 A3               [24] 2165 	inc	dptr
      0004E8 E0               [24] 2166 	movx	a,@dptr
      0004E9 FF               [12] 2167 	mov	r7,a
      0004EA 4E               [12] 2168 	orl	a,r6
      0004EB 70 2F            [24] 2169 	jnz	00106$
      0004ED 90r00r22         [24] 2170 	mov	dptr,#(_uip_aligned_buf + 0x0022)
      0004F0 E0               [24] 2171 	movx	a,@dptr
      0004F1 FE               [12] 2172 	mov	r6,a
      0004F2 A3               [24] 2173 	inc	dptr
      0004F3 E0               [24] 2174 	movx	a,@dptr
      0004F4 FF               [12] 2175 	mov	r7,a
      0004F5 4E               [12] 2176 	orl	a,r6
      0004F6 70 24            [24] 2177 	jnz	00106$
      0004F8 90r00r24         [24] 2178 	mov	dptr,#(_uip_aligned_buf + 0x0024)
      0004FB E0               [24] 2179 	movx	a,@dptr
      0004FC FE               [12] 2180 	mov	r6,a
      0004FD A3               [24] 2181 	inc	dptr
      0004FE E0               [24] 2182 	movx	a,@dptr
      0004FF FF               [12] 2183 	mov	r7,a
      000500 4E               [12] 2184 	orl	a,r6
      000501 70 19            [24] 2185 	jnz	00106$
      000503 90r00r26         [24] 2186 	mov	dptr,#(_uip_aligned_buf + 0x0026)
      000506 E0               [24] 2187 	movx	a,@dptr
      000507 FE               [12] 2188 	mov	r6,a
      000508 A3               [24] 2189 	inc	dptr
      000509 E0               [24] 2190 	movx	a,@dptr
      00050A FF               [12] 2191 	mov	r7,a
      00050B 4E               [12] 2192 	orl	a,r6
      00050C 70 0E            [24] 2193 	jnz	00106$
                                   2194 ;	/opt/contiki/core/net/ip/tcpip.c:542: uip_clear_buf();
      00050E 90r00r00         [24] 2195 	mov	dptr,#_uip_len
      000511 E4               [12] 2196 	clr	a
      000512 F0               [24] 2197 	movx	@dptr,a
      000513 A3               [24] 2198 	inc	dptr
      000514 F0               [24] 2199 	movx	@dptr,a
      000515 90r00r00         [24] 2200 	mov	dptr,#_uip_ext_len
      000518 F0               [24] 2201 	movx	@dptr,a
                                   2202 ;	/opt/contiki/core/net/ip/tcpip.c:543: return;
      000519 02r08rBE         [24] 2203 	ljmp	00143$
      00051C                       2204 00106$:
                                   2205 ;	/opt/contiki/core/net/ip/tcpip.c:546: if(!uip_is_addr_mcast(&UIP_IP_BUF->destipaddr)) {
      00051C 90r00r18         [24] 2206 	mov	dptr,#(_uip_aligned_buf + 0x0018)
      00051F E0               [24] 2207 	movx	a,@dptr
      000520 FF               [12] 2208 	mov	r7,a
      000521 BF FF 03         [24] 2209 	cjne	r7,#0xFF,00221$
      000524 02r08rA4         [24] 2210 	ljmp	00142$
      000527                       2211 00221$:
                                   2212 ;	/opt/contiki/core/net/ip/tcpip.c:553: if(uip_ds6_is_addr_onlink(&UIP_IP_BUF->destipaddr)){
      000527 90r00r18         [24] 2213 	mov	dptr,#(_uip_aligned_buf + 0x0018)
      00052A 75 F0 00         [24] 2214 	mov	b,#0x00
      00052D 78r00            [12] 2215 	mov	r0,#_uip_ds6_is_addr_onlink
      00052F 79s00            [12] 2216 	mov	r1,#(_uip_ds6_is_addr_onlink >> 8)
      000531 7As00            [12] 2217 	mov	r2,#(_uip_ds6_is_addr_onlink >> 16)
      000533 12r00r00         [24] 2218 	lcall	__sdcc_banked_call
      000536 E5 82            [12] 2219 	mov	a,dpl
      000538 60 09            [24] 2220 	jz	00124$
                                   2221 ;	/opt/contiki/core/net/ip/tcpip.c:554: nexthop = &UIP_IP_BUF->destipaddr;
      00053A 7Dr18            [12] 2222 	mov	r5,#(_uip_aligned_buf + 0x0018)
      00053C 7Es00            [12] 2223 	mov	r6,#((_uip_aligned_buf + 0x0018) >> 8)
      00053E 7F 00            [12] 2224 	mov	r7,#0x00
      000540 02r06r47         [24] 2225 	ljmp	00125$
      000543                       2226 00124$:
                                   2227 ;	/opt/contiki/core/net/ip/tcpip.c:558: route = uip_ds6_route_lookup(&UIP_IP_BUF->destipaddr);
      000543 90r00r18         [24] 2228 	mov	dptr,#(_uip_aligned_buf + 0x0018)
      000546 75 F0 00         [24] 2229 	mov	b,#0x00
      000549 78r00            [12] 2230 	mov	r0,#_uip_ds6_route_lookup
      00054B 79s00            [12] 2231 	mov	r1,#(_uip_ds6_route_lookup >> 8)
      00054D 7As00            [12] 2232 	mov	r2,#(_uip_ds6_route_lookup >> 16)
      00054F 12r00r00         [24] 2233 	lcall	__sdcc_banked_call
      000552 AA 82            [24] 2234 	mov	r2,dpl
      000554 AB 83            [24] 2235 	mov	r3,dph
      000556 AC F0            [24] 2236 	mov	r4,b
      000558 A8 81            [24] 2237 	mov	r0,sp
      00055A 18               [12] 2238 	dec	r0
      00055B 18               [12] 2239 	dec	r0
      00055C A6 02            [24] 2240 	mov	@r0,ar2
      00055E 08               [12] 2241 	inc	r0
      00055F A6 03            [24] 2242 	mov	@r0,ar3
      000561 08               [12] 2243 	inc	r0
      000562 A6 04            [24] 2244 	mov	@r0,ar4
                                   2245 ;	/opt/contiki/core/net/ip/tcpip.c:561: if(route == NULL) {
      000564 A8 81            [24] 2246 	mov	r0,sp
      000566 18               [12] 2247 	dec	r0
      000567 18               [12] 2248 	dec	r0
      000568 E6               [12] 2249 	mov	a,@r0
      000569 08               [12] 2250 	inc	r0
      00056A 46               [12] 2251 	orl	a,@r0
      00056B 70 2A            [24] 2252 	jnz	00121$
                                   2253 ;	/opt/contiki/core/net/ip/tcpip.c:563: nexthop = uip_ds6_defrt_choose();
      00056D 78r00            [12] 2254 	mov	r0,#_uip_ds6_defrt_choose
      00056F 79s00            [12] 2255 	mov	r1,#(_uip_ds6_defrt_choose >> 8)
      000571 7As00            [12] 2256 	mov	r2,#(_uip_ds6_defrt_choose >> 16)
      000573 12r00r00         [24] 2257 	lcall	__sdcc_banked_call
      000576 AC 82            [24] 2258 	mov	r4,dpl
      000578 AB 83            [24] 2259 	mov	r3,dph
      00057A AA F0            [24] 2260 	mov	r2,b
      00057C 8C 05            [24] 2261 	mov	ar5,r4
      00057E 8B 06            [24] 2262 	mov	ar6,r3
      000580 8A 07            [24] 2263 	mov	ar7,r2
                                   2264 ;	/opt/contiki/core/net/ip/tcpip.c:564: if(nexthop == NULL) {
      000582 ED               [12] 2265 	mov	a,r5
      000583 4E               [12] 2266 	orl	a,r6
      000584 60 03            [24] 2267 	jz	00224$
      000586 02r06r47         [24] 2268 	ljmp	00125$
      000589                       2269 00224$:
                                   2270 ;	/opt/contiki/core/net/ip/tcpip.c:588: uip_clear_buf();
      000589 90r00r00         [24] 2271 	mov	dptr,#_uip_len
      00058C E4               [12] 2272 	clr	a
      00058D F0               [24] 2273 	movx	@dptr,a
      00058E A3               [24] 2274 	inc	dptr
      00058F F0               [24] 2275 	movx	@dptr,a
      000590 90r00r00         [24] 2276 	mov	dptr,#_uip_ext_len
      000593 F0               [24] 2277 	movx	@dptr,a
                                   2278 ;	/opt/contiki/core/net/ip/tcpip.c:589: return;
      000594 02r08rBE         [24] 2279 	ljmp	00143$
      000597                       2280 00121$:
                                   2281 ;	/opt/contiki/core/net/ip/tcpip.c:595: nexthop = uip_ds6_route_nexthop(route);
      000597 A8 81            [24] 2282 	mov	r0,sp
      000599 18               [12] 2283 	dec	r0
      00059A 18               [12] 2284 	dec	r0
      00059B 86 82            [24] 2285 	mov	dpl,@r0
      00059D 08               [12] 2286 	inc	r0
      00059E 86 83            [24] 2287 	mov	dph,@r0
      0005A0 08               [12] 2288 	inc	r0
      0005A1 86 F0            [24] 2289 	mov	b,@r0
      0005A3 78r00            [12] 2290 	mov	r0,#_uip_ds6_route_nexthop
      0005A5 79s00            [12] 2291 	mov	r1,#(_uip_ds6_route_nexthop >> 8)
      0005A7 7As00            [12] 2292 	mov	r2,#(_uip_ds6_route_nexthop >> 16)
      0005A9 12r00r00         [24] 2293 	lcall	__sdcc_banked_call
      0005AC AA 82            [24] 2294 	mov	r2,dpl
      0005AE AB 83            [24] 2295 	mov	r3,dph
      0005B0 AC F0            [24] 2296 	mov	r4,b
      0005B2 8A 05            [24] 2297 	mov	ar5,r2
      0005B4 8B 06            [24] 2298 	mov	ar6,r3
      0005B6 8C 07            [24] 2299 	mov	ar7,r4
                                   2300 ;	/opt/contiki/core/net/ip/tcpip.c:599: if(nexthop == NULL) {
      0005B8 ED               [12] 2301 	mov	a,r5
      0005B9 4E               [12] 2302 	orl	a,r6
      0005BA 60 03            [24] 2303 	jz	00225$
      0005BC 02r06r47         [24] 2304 	ljmp	00125$
      0005BF                       2305 00225$:
                                   2306 ;	/opt/contiki/core/net/ip/tcpip.c:607: dag = (rpl_dag_t *)route->state.dag;
      0005BF A8 81            [24] 2307 	mov	r0,sp
      0005C1 18               [12] 2308 	dec	r0
      0005C2 18               [12] 2309 	dec	r0
      0005C3 74 16            [12] 2310 	mov	a,#0x16
      0005C5 26               [12] 2311 	add	a,@r0
      0005C6 FA               [12] 2312 	mov	r2,a
      0005C7 E4               [12] 2313 	clr	a
      0005C8 08               [12] 2314 	inc	r0
      0005C9 36               [12] 2315 	addc	a,@r0
      0005CA FB               [12] 2316 	mov	r3,a
      0005CB 08               [12] 2317 	inc	r0
      0005CC 86 04            [24] 2318 	mov	ar4,@r0
      0005CE 74 04            [12] 2319 	mov	a,#0x04
      0005D0 2A               [12] 2320 	add	a,r2
      0005D1 FA               [12] 2321 	mov	r2,a
      0005D2 E4               [12] 2322 	clr	a
      0005D3 3B               [12] 2323 	addc	a,r3
      0005D4 FB               [12] 2324 	mov	r3,a
      0005D5 8A 82            [24] 2325 	mov	dpl,r2
      0005D7 8B 83            [24] 2326 	mov	dph,r3
      0005D9 8C F0            [24] 2327 	mov	b,r4
      0005DB 12r00r00         [24] 2328 	lcall	__gptrget
      0005DE FA               [12] 2329 	mov	r2,a
      0005DF A3               [24] 2330 	inc	dptr
      0005E0 12r00r00         [24] 2331 	lcall	__gptrget
      0005E3 FB               [12] 2332 	mov	r3,a
      0005E4 A3               [24] 2333 	inc	dptr
      0005E5 12r00r00         [24] 2334 	lcall	__gptrget
      0005E8 FC               [12] 2335 	mov	r4,a
      0005E9 8A 07            [24] 2336 	mov	ar7,r2
      0005EB 8B 06            [24] 2337 	mov	ar6,r3
      0005ED 8C 05            [24] 2338 	mov	ar5,r4
      0005EF 8F 02            [24] 2339 	mov	ar2,r7
      0005F1 8E 03            [24] 2340 	mov	ar3,r6
      0005F3 8D 04            [24] 2341 	mov	ar4,r5
                                   2342 ;	/opt/contiki/core/net/ip/tcpip.c:608: if(dag != NULL) {
      0005F5 EF               [12] 2343 	mov	a,r7
      0005F6 4E               [12] 2344 	orl	a,r6
      0005F7 60 36            [24] 2345 	jz	00117$
                                   2346 ;	/opt/contiki/core/net/ip/tcpip.c:609: instance = dag->instance;
      0005F9 74 1C            [12] 2347 	mov	a,#0x1C
      0005FB 2A               [12] 2348 	add	a,r2
      0005FC FA               [12] 2349 	mov	r2,a
      0005FD E4               [12] 2350 	clr	a
      0005FE 3B               [12] 2351 	addc	a,r3
      0005FF FB               [12] 2352 	mov	r3,a
      000600 8A 82            [24] 2353 	mov	dpl,r2
      000602 8B 83            [24] 2354 	mov	dph,r3
      000604 8C F0            [24] 2355 	mov	b,r4
      000606 12r00r00         [24] 2356 	lcall	__gptrget
      000609 FA               [12] 2357 	mov	r2,a
      00060A A3               [24] 2358 	inc	dptr
      00060B 12r00r00         [24] 2359 	lcall	__gptrget
      00060E FB               [12] 2360 	mov	r3,a
      00060F A3               [24] 2361 	inc	dptr
      000610 12r00r00         [24] 2362 	lcall	__gptrget
      000613 FC               [12] 2363 	mov	r4,a
                                   2364 ;	/opt/contiki/core/net/ip/tcpip.c:611: rpl_repair_root(instance->instance_id);
      000614 74 82            [12] 2365 	mov	a,#0x82
      000616 2A               [12] 2366 	add	a,r2
      000617 FA               [12] 2367 	mov	r2,a
      000618 E4               [12] 2368 	clr	a
      000619 3B               [12] 2369 	addc	a,r3
      00061A FB               [12] 2370 	mov	r3,a
      00061B 8A 82            [24] 2371 	mov	dpl,r2
      00061D 8B 83            [24] 2372 	mov	dph,r3
      00061F 8C F0            [24] 2373 	mov	b,r4
      000621 12r00r00         [24] 2374 	lcall	__gptrget
      000624 F5 82            [12] 2375 	mov	dpl,a
      000626 78r00            [12] 2376 	mov	r0,#_rpl_repair_root
      000628 79s00            [12] 2377 	mov	r1,#(_rpl_repair_root >> 8)
      00062A 7As00            [12] 2378 	mov	r2,#(_rpl_repair_root >> 16)
      00062C 12r00r00         [24] 2379 	lcall	__sdcc_banked_call
      00062F                       2380 00117$:
                                   2381 ;	/opt/contiki/core/net/ip/tcpip.c:614: uip_ds6_route_rm(route);
      00062F A8 81            [24] 2382 	mov	r0,sp
      000631 18               [12] 2383 	dec	r0
      000632 18               [12] 2384 	dec	r0
      000633 86 82            [24] 2385 	mov	dpl,@r0
      000635 08               [12] 2386 	inc	r0
      000636 86 83            [24] 2387 	mov	dph,@r0
      000638 08               [12] 2388 	inc	r0
      000639 86 F0            [24] 2389 	mov	b,@r0
      00063B 78r00            [12] 2390 	mov	r0,#_uip_ds6_route_rm
      00063D 79s00            [12] 2391 	mov	r1,#(_uip_ds6_route_rm >> 8)
      00063F 7As00            [12] 2392 	mov	r2,#(_uip_ds6_route_rm >> 16)
      000641 12r00r00         [24] 2393 	lcall	__sdcc_banked_call
                                   2394 ;	/opt/contiki/core/net/ip/tcpip.c:618: return;
      000644 02r08rBE         [24] 2395 	ljmp	00143$
      000647                       2396 00125$:
                                   2397 ;	/opt/contiki/core/net/ip/tcpip.c:639: if(rpl_update_header_final(nexthop)) {
      000647 8D 82            [24] 2398 	mov	dpl,r5
      000649 8E 83            [24] 2399 	mov	dph,r6
      00064B 8F F0            [24] 2400 	mov	b,r7
      00064D C0 07            [24] 2401 	push	ar7
      00064F C0 06            [24] 2402 	push	ar6
      000651 C0 05            [24] 2403 	push	ar5
      000653 78r00            [12] 2404 	mov	r0,#_rpl_update_header_final
      000655 79s00            [12] 2405 	mov	r1,#(_rpl_update_header_final >> 8)
      000657 7As00            [12] 2406 	mov	r2,#(_rpl_update_header_final >> 16)
      000659 12r00r00         [24] 2407 	lcall	__sdcc_banked_call
      00065C E5 82            [12] 2408 	mov	a,dpl
      00065E 85 83 F0         [24] 2409 	mov	b,dph
      000661 D0 05            [24] 2410 	pop	ar5
      000663 D0 06            [24] 2411 	pop	ar6
      000665 D0 07            [24] 2412 	pop	ar7
      000667 45 F0            [12] 2413 	orl	a,b
      000669 60 0E            [24] 2414 	jz	00127$
                                   2415 ;	/opt/contiki/core/net/ip/tcpip.c:640: uip_clear_buf();
      00066B 90r00r00         [24] 2416 	mov	dptr,#_uip_len
      00066E E4               [12] 2417 	clr	a
      00066F F0               [24] 2418 	movx	@dptr,a
      000670 A3               [24] 2419 	inc	dptr
      000671 F0               [24] 2420 	movx	@dptr,a
      000672 90r00r00         [24] 2421 	mov	dptr,#_uip_ext_len
      000675 F0               [24] 2422 	movx	@dptr,a
                                   2423 ;	/opt/contiki/core/net/ip/tcpip.c:641: return;
      000676 02r08rBE         [24] 2424 	ljmp	00143$
      000679                       2425 00127$:
                                   2426 ;	/opt/contiki/core/net/ip/tcpip.c:644: nbr = uip_ds6_nbr_lookup(nexthop);
      000679 8D 82            [24] 2427 	mov	dpl,r5
      00067B 8E 83            [24] 2428 	mov	dph,r6
      00067D 8F F0            [24] 2429 	mov	b,r7
      00067F C0 07            [24] 2430 	push	ar7
      000681 C0 06            [24] 2431 	push	ar6
      000683 C0 05            [24] 2432 	push	ar5
      000685 78r00            [12] 2433 	mov	r0,#_uip_ds6_nbr_lookup
      000687 79s00            [12] 2434 	mov	r1,#(_uip_ds6_nbr_lookup >> 8)
      000689 7As00            [12] 2435 	mov	r2,#(_uip_ds6_nbr_lookup >> 16)
      00068B 12r00r00         [24] 2436 	lcall	__sdcc_banked_call
      00068E AA 82            [24] 2437 	mov	r2,dpl
      000690 AB 83            [24] 2438 	mov	r3,dph
      000692 AC F0            [24] 2439 	mov	r4,b
      000694 D0 05            [24] 2440 	pop	ar5
      000696 D0 06            [24] 2441 	pop	ar6
      000698 D0 07            [24] 2442 	pop	ar7
      00069A E5 81            [12] 2443 	mov	a,sp
      00069C 24 FB            [12] 2444 	add	a,#0xfb
      00069E F8               [12] 2445 	mov	r0,a
      00069F A6 02            [24] 2446 	mov	@r0,ar2
      0006A1 08               [12] 2447 	inc	r0
      0006A2 A6 03            [24] 2448 	mov	@r0,ar3
      0006A4 08               [12] 2449 	inc	r0
      0006A5 A6 04            [24] 2450 	mov	@r0,ar4
                                   2451 ;	/opt/contiki/core/net/ip/tcpip.c:645: if(nbr == NULL) {
      0006A7 E5 81            [12] 2452 	mov	a,sp
      0006A9 24 FB            [12] 2453 	add	a,#0xfb
      0006AB F8               [12] 2454 	mov	r0,a
      0006AC E6               [12] 2455 	mov	a,@r0
      0006AD 08               [12] 2456 	inc	r0
      0006AE 46               [12] 2457 	orl	a,@r0
      0006AF 60 03            [24] 2458 	jz	00228$
      0006B1 02r07rF8         [24] 2459 	ljmp	00139$
      0006B4                       2460 00228$:
                                   2461 ;	/opt/contiki/core/net/ip/tcpip.c:647: if((nbr = uip_ds6_nbr_add(nexthop, NULL, 0, NBR_INCOMPLETE)) == NULL) {
      0006B4 E4               [12] 2462 	clr	a
      0006B5 C0 E0            [24] 2463 	push	acc
      0006B7 C0 E0            [24] 2464 	push	acc
      0006B9 C0 E0            [24] 2465 	push	acc
      0006BB C0 E0            [24] 2466 	push	acc
      0006BD C0 E0            [24] 2467 	push	acc
      0006BF 8D 82            [24] 2468 	mov	dpl,r5
      0006C1 8E 83            [24] 2469 	mov	dph,r6
      0006C3 8F F0            [24] 2470 	mov	b,r7
      0006C5 78r00            [12] 2471 	mov	r0,#_uip_ds6_nbr_add
      0006C7 79s00            [12] 2472 	mov	r1,#(_uip_ds6_nbr_add >> 8)
      0006C9 7As00            [12] 2473 	mov	r2,#(_uip_ds6_nbr_add >> 16)
      0006CB 12r00r00         [24] 2474 	lcall	__sdcc_banked_call
      0006CE AD 82            [24] 2475 	mov	r5,dpl
      0006D0 AE 83            [24] 2476 	mov	r6,dph
      0006D2 AF F0            [24] 2477 	mov	r7,b
      0006D4 E5 81            [12] 2478 	mov	a,sp
      0006D6 24 FB            [12] 2479 	add	a,#0xfb
      0006D8 F5 81            [12] 2480 	mov	sp,a
      0006DA 24 FB            [12] 2481 	add	a,#0xfb
      0006DC F8               [12] 2482 	mov	r0,a
      0006DD A6 05            [24] 2483 	mov	@r0,ar5
      0006DF 08               [12] 2484 	inc	r0
      0006E0 A6 06            [24] 2485 	mov	@r0,ar6
      0006E2 08               [12] 2486 	inc	r0
      0006E3 A6 07            [24] 2487 	mov	@r0,ar7
      0006E5 ED               [12] 2488 	mov	a,r5
      0006E6 4E               [12] 2489 	orl	a,r6
      0006E7 70 0E            [24] 2490 	jnz	00132$
                                   2491 ;	/opt/contiki/core/net/ip/tcpip.c:648: uip_clear_buf();
      0006E9 90r00r00         [24] 2492 	mov	dptr,#_uip_len
      0006EC E4               [12] 2493 	clr	a
      0006ED F0               [24] 2494 	movx	@dptr,a
      0006EE A3               [24] 2495 	inc	dptr
      0006EF F0               [24] 2496 	movx	@dptr,a
      0006F0 90r00r00         [24] 2497 	mov	dptr,#_uip_ext_len
      0006F3 F0               [24] 2498 	movx	@dptr,a
                                   2499 ;	/opt/contiki/core/net/ip/tcpip.c:649: return;
      0006F4 02r08rBE         [24] 2500 	ljmp	00143$
      0006F7                       2501 00132$:
                                   2502 ;	/opt/contiki/core/net/ip/tcpip.c:664: if(uip_ds6_is_my_addr(&UIP_IP_BUF->srcipaddr)){
      0006F7 90r00r08         [24] 2503 	mov	dptr,#(_uip_aligned_buf + 0x0008)
      0006FA 75 F0 00         [24] 2504 	mov	b,#0x00
      0006FD 78r00            [12] 2505 	mov	r0,#_uip_ds6_addr_lookup
      0006FF 79s00            [12] 2506 	mov	r1,#(_uip_ds6_addr_lookup >> 8)
      000701 7As00            [12] 2507 	mov	r2,#(_uip_ds6_addr_lookup >> 16)
      000703 12r00r00         [24] 2508 	lcall	__sdcc_banked_call
      000706 AD 82            [24] 2509 	mov	r5,dpl
      000708 AE 83            [24] 2510 	mov	r6,dph
      00070A AF F0            [24] 2511 	mov	r7,b
      00070C ED               [12] 2512 	mov	a,r5
      00070D 4E               [12] 2513 	orl	a,r6
      00070E 60 2E            [24] 2514 	jz	00129$
                                   2515 ;	/opt/contiki/core/net/ip/tcpip.c:665: uip_nd6_ns_output(&UIP_IP_BUF->srcipaddr, NULL, &nbr->ipaddr);
      000710 E5 81            [12] 2516 	mov	a,sp
      000712 24 FB            [12] 2517 	add	a,#0xfb
      000714 F8               [12] 2518 	mov	r0,a
      000715 E6               [12] 2519 	mov	a,@r0
      000716 C0 E0            [24] 2520 	push	acc
      000718 08               [12] 2521 	inc	r0
      000719 E6               [12] 2522 	mov	a,@r0
      00071A C0 E0            [24] 2523 	push	acc
      00071C 08               [12] 2524 	inc	r0
      00071D E6               [12] 2525 	mov	a,@r0
      00071E C0 E0            [24] 2526 	push	acc
      000720 E4               [12] 2527 	clr	a
      000721 C0 E0            [24] 2528 	push	acc
      000723 C0 E0            [24] 2529 	push	acc
      000725 C0 E0            [24] 2530 	push	acc
      000727 90r00r08         [24] 2531 	mov	dptr,#(_uip_aligned_buf + 0x0008)
      00072A 75 F0 00         [24] 2532 	mov	b,#0x00
      00072D 78r00            [12] 2533 	mov	r0,#_uip_nd6_ns_output
      00072F 79s00            [12] 2534 	mov	r1,#(_uip_nd6_ns_output >> 8)
      000731 7As00            [12] 2535 	mov	r2,#(_uip_nd6_ns_output >> 16)
      000733 12r00r00         [24] 2536 	lcall	__sdcc_banked_call
      000736 E5 81            [12] 2537 	mov	a,sp
      000738 24 FA            [12] 2538 	add	a,#0xfa
      00073A F5 81            [12] 2539 	mov	sp,a
      00073C 80 2C            [24] 2540 	sjmp	00130$
      00073E                       2541 00129$:
                                   2542 ;	/opt/contiki/core/net/ip/tcpip.c:667: uip_nd6_ns_output(NULL, NULL, &nbr->ipaddr);
      00073E E5 81            [12] 2543 	mov	a,sp
      000740 24 FB            [12] 2544 	add	a,#0xfb
      000742 F8               [12] 2545 	mov	r0,a
      000743 E6               [12] 2546 	mov	a,@r0
      000744 C0 E0            [24] 2547 	push	acc
      000746 08               [12] 2548 	inc	r0
      000747 E6               [12] 2549 	mov	a,@r0
      000748 C0 E0            [24] 2550 	push	acc
      00074A 08               [12] 2551 	inc	r0
      00074B E6               [12] 2552 	mov	a,@r0
      00074C C0 E0            [24] 2553 	push	acc
      00074E E4               [12] 2554 	clr	a
      00074F C0 E0            [24] 2555 	push	acc
      000751 C0 E0            [24] 2556 	push	acc
      000753 C0 E0            [24] 2557 	push	acc
      000755 90 00 00         [24] 2558 	mov	dptr,#0x0000
      000758 75 F0 00         [24] 2559 	mov	b,#0x00
      00075B 78r00            [12] 2560 	mov	r0,#_uip_nd6_ns_output
      00075D 79s00            [12] 2561 	mov	r1,#(_uip_nd6_ns_output >> 8)
      00075F 7As00            [12] 2562 	mov	r2,#(_uip_nd6_ns_output >> 16)
      000761 12r00r00         [24] 2563 	lcall	__sdcc_banked_call
      000764 E5 81            [12] 2564 	mov	a,sp
      000766 24 FA            [12] 2565 	add	a,#0xfa
      000768 F5 81            [12] 2566 	mov	sp,a
      00076A                       2567 00130$:
                                   2568 ;	/opt/contiki/core/net/ip/tcpip.c:670: stimer_set(&nbr->sendns, uip_ds6_if.retrans_timer / 1000);
      00076A 90r00r0D         [24] 2569 	mov	dptr,#(_uip_ds6_if + 0x000d)
      00076D E0               [24] 2570 	movx	a,@dptr
      00076E FC               [12] 2571 	mov	r4,a
      00076F A3               [24] 2572 	inc	dptr
      000770 E0               [24] 2573 	movx	a,@dptr
      000771 FD               [12] 2574 	mov	r5,a
      000772 A3               [24] 2575 	inc	dptr
      000773 E0               [24] 2576 	movx	a,@dptr
      000774 FE               [12] 2577 	mov	r6,a
      000775 A3               [24] 2578 	inc	dptr
      000776 E0               [24] 2579 	movx	a,@dptr
      000777 FF               [12] 2580 	mov	r7,a
      000778 74 E8            [12] 2581 	mov	a,#0xE8
      00077A C0 E0            [24] 2582 	push	acc
      00077C 74 03            [12] 2583 	mov	a,#0x03
      00077E C0 E0            [24] 2584 	push	acc
      000780 E4               [12] 2585 	clr	a
      000781 C0 E0            [24] 2586 	push	acc
      000783 C0 E0            [24] 2587 	push	acc
      000785 8C 82            [24] 2588 	mov	dpl,r4
      000787 8D 83            [24] 2589 	mov	dph,r5
      000789 8E F0            [24] 2590 	mov	b,r6
      00078B EF               [12] 2591 	mov	a,r7
      00078C 12r00r00         [24] 2592 	lcall	__divulong
      00078F C8               [12] 2593 	xch	a,r0
      000790 E5 81            [12] 2594 	mov	a,sp
      000792 24 F3            [12] 2595 	add	a,#0xf3
      000794 C8               [12] 2596 	xch	a,r0
      000795 A6 82            [24] 2597 	mov	@r0,dpl
      000797 08               [12] 2598 	inc	r0
      000798 A6 83            [24] 2599 	mov	@r0,dph
      00079A 08               [12] 2600 	inc	r0
      00079B A6 F0            [24] 2601 	mov	@r0,b
      00079D 08               [12] 2602 	inc	r0
      00079E F6               [12] 2603 	mov	@r0,a
      00079F E5 81            [12] 2604 	mov	a,sp
      0007A1 24 FC            [12] 2605 	add	a,#0xfc
      0007A3 F5 81            [12] 2606 	mov	sp,a
      0007A5 24 FB            [12] 2607 	add	a,#0xfb
      0007A7 F8               [12] 2608 	mov	r0,a
      0007A8 74 18            [12] 2609 	mov	a,#0x18
      0007AA 26               [12] 2610 	add	a,@r0
      0007AB FA               [12] 2611 	mov	r2,a
      0007AC E4               [12] 2612 	clr	a
      0007AD 08               [12] 2613 	inc	r0
      0007AE 36               [12] 2614 	addc	a,@r0
      0007AF FB               [12] 2615 	mov	r3,a
      0007B0 08               [12] 2616 	inc	r0
      0007B1 86 07            [24] 2617 	mov	ar7,@r0
      0007B3 E5 81            [12] 2618 	mov	a,sp
      0007B5 24 F7            [12] 2619 	add	a,#0xf7
      0007B7 F8               [12] 2620 	mov	r0,a
      0007B8 E6               [12] 2621 	mov	a,@r0
      0007B9 C0 E0            [24] 2622 	push	acc
      0007BB 08               [12] 2623 	inc	r0
      0007BC E6               [12] 2624 	mov	a,@r0
      0007BD C0 E0            [24] 2625 	push	acc
      0007BF 08               [12] 2626 	inc	r0
      0007C0 E6               [12] 2627 	mov	a,@r0
      0007C1 C0 E0            [24] 2628 	push	acc
      0007C3 08               [12] 2629 	inc	r0
      0007C4 E6               [12] 2630 	mov	a,@r0
      0007C5 C0 E0            [24] 2631 	push	acc
      0007C7 8A 82            [24] 2632 	mov	dpl,r2
      0007C9 8B 83            [24] 2633 	mov	dph,r3
      0007CB 8F F0            [24] 2634 	mov	b,r7
      0007CD 78r00            [12] 2635 	mov	r0,#_stimer_set
      0007CF 79s00            [12] 2636 	mov	r1,#(_stimer_set >> 8)
      0007D1 7As00            [12] 2637 	mov	r2,#(_stimer_set >> 16)
      0007D3 12r00r00         [24] 2638 	lcall	__sdcc_banked_call
      0007D6 E5 81            [12] 2639 	mov	a,sp
      0007D8 24 FC            [12] 2640 	add	a,#0xfc
                                   2641 ;	/opt/contiki/core/net/ip/tcpip.c:671: nbr->nscount = 1;
      0007DA F5 81            [12] 2642 	mov	sp,a
      0007DC 24 FB            [12] 2643 	add	a,#0xfb
      0007DE F8               [12] 2644 	mov	r0,a
      0007DF 74 20            [12] 2645 	mov	a,#0x20
      0007E1 26               [12] 2646 	add	a,@r0
      0007E2 FD               [12] 2647 	mov	r5,a
      0007E3 E4               [12] 2648 	clr	a
      0007E4 08               [12] 2649 	inc	r0
      0007E5 36               [12] 2650 	addc	a,@r0
      0007E6 FE               [12] 2651 	mov	r6,a
      0007E7 08               [12] 2652 	inc	r0
      0007E8 86 07            [24] 2653 	mov	ar7,@r0
      0007EA 8D 82            [24] 2654 	mov	dpl,r5
      0007EC 8E 83            [24] 2655 	mov	dph,r6
      0007EE 8F F0            [24] 2656 	mov	b,r7
      0007F0 74 01            [12] 2657 	mov	a,#0x01
      0007F2 12r00r00         [24] 2658 	lcall	__gptrput
      0007F5 02r08rA4         [24] 2659 	ljmp	00142$
      0007F8                       2660 00139$:
                                   2661 ;	/opt/contiki/core/net/ip/tcpip.c:680: if(nbr->state == NBR_INCOMPLETE) {
      0007F8 E5 81            [12] 2662 	mov	a,sp
      0007FA 24 FB            [12] 2663 	add	a,#0xfb
      0007FC F8               [12] 2664 	mov	r0,a
      0007FD 74 22            [12] 2665 	mov	a,#0x22
      0007FF 26               [12] 2666 	add	a,@r0
      000800 FD               [12] 2667 	mov	r5,a
      000801 E4               [12] 2668 	clr	a
      000802 08               [12] 2669 	inc	r0
      000803 36               [12] 2670 	addc	a,@r0
      000804 FE               [12] 2671 	mov	r6,a
      000805 08               [12] 2672 	inc	r0
      000806 86 07            [24] 2673 	mov	ar7,@r0
      000808 8D 82            [24] 2674 	mov	dpl,r5
      00080A 8E 83            [24] 2675 	mov	dph,r6
      00080C 8F F0            [24] 2676 	mov	b,r7
      00080E 12r00r00         [24] 2677 	lcall	__gptrget
      000811 FC               [12] 2678 	mov	r4,a
      000812 70 0E            [24] 2679 	jnz	00135$
                                   2680 ;	/opt/contiki/core/net/ip/tcpip.c:690: uip_clear_buf();
      000814 90r00r00         [24] 2681 	mov	dptr,#_uip_len
      000817 E4               [12] 2682 	clr	a
      000818 F0               [24] 2683 	movx	@dptr,a
      000819 A3               [24] 2684 	inc	dptr
      00081A F0               [24] 2685 	movx	@dptr,a
      00081B 90r00r00         [24] 2686 	mov	dptr,#_uip_ext_len
      00081E F0               [24] 2687 	movx	@dptr,a
                                   2688 ;	/opt/contiki/core/net/ip/tcpip.c:691: return;
      00081F 02r08rBE         [24] 2689 	ljmp	00143$
      000822                       2690 00135$:
                                   2691 ;	/opt/contiki/core/net/ip/tcpip.c:695: if(nbr->state == NBR_STALE) {
      000822 BC 02 53         [24] 2692 	cjne	r4,#0x02,00137$
                                   2693 ;	/opt/contiki/core/net/ip/tcpip.c:696: nbr->state = NBR_DELAY;
      000825 8D 82            [24] 2694 	mov	dpl,r5
      000827 8E 83            [24] 2695 	mov	dph,r6
      000829 8F F0            [24] 2696 	mov	b,r7
      00082B 74 03            [12] 2697 	mov	a,#0x03
      00082D 12r00r00         [24] 2698 	lcall	__gptrput
                                   2699 ;	/opt/contiki/core/net/ip/tcpip.c:697: stimer_set(&nbr->reachable, UIP_ND6_DELAY_FIRST_PROBE_TIME);
      000830 E5 81            [12] 2700 	mov	a,sp
      000832 24 FB            [12] 2701 	add	a,#0xfb
      000834 F8               [12] 2702 	mov	r0,a
      000835 74 10            [12] 2703 	mov	a,#0x10
      000837 26               [12] 2704 	add	a,@r0
      000838 FD               [12] 2705 	mov	r5,a
      000839 E4               [12] 2706 	clr	a
      00083A 08               [12] 2707 	inc	r0
      00083B 36               [12] 2708 	addc	a,@r0
      00083C FE               [12] 2709 	mov	r6,a
      00083D 08               [12] 2710 	inc	r0
      00083E 86 07            [24] 2711 	mov	ar7,@r0
      000840 74 05            [12] 2712 	mov	a,#0x05
      000842 C0 E0            [24] 2713 	push	acc
      000844 E4               [12] 2714 	clr	a
      000845 C0 E0            [24] 2715 	push	acc
      000847 C0 E0            [24] 2716 	push	acc
      000849 C0 E0            [24] 2717 	push	acc
      00084B 8D 82            [24] 2718 	mov	dpl,r5
      00084D 8E 83            [24] 2719 	mov	dph,r6
      00084F 8F F0            [24] 2720 	mov	b,r7
      000851 78r00            [12] 2721 	mov	r0,#_stimer_set
      000853 79s00            [12] 2722 	mov	r1,#(_stimer_set >> 8)
      000855 7As00            [12] 2723 	mov	r2,#(_stimer_set >> 16)
      000857 12r00r00         [24] 2724 	lcall	__sdcc_banked_call
      00085A E5 81            [12] 2725 	mov	a,sp
      00085C 24 FC            [12] 2726 	add	a,#0xfc
                                   2727 ;	/opt/contiki/core/net/ip/tcpip.c:698: nbr->nscount = 0;
      00085E F5 81            [12] 2728 	mov	sp,a
      000860 24 FB            [12] 2729 	add	a,#0xfb
      000862 F8               [12] 2730 	mov	r0,a
      000863 74 20            [12] 2731 	mov	a,#0x20
      000865 26               [12] 2732 	add	a,@r0
      000866 FD               [12] 2733 	mov	r5,a
      000867 E4               [12] 2734 	clr	a
      000868 08               [12] 2735 	inc	r0
      000869 36               [12] 2736 	addc	a,@r0
      00086A FE               [12] 2737 	mov	r6,a
      00086B 08               [12] 2738 	inc	r0
      00086C 86 07            [24] 2739 	mov	ar7,@r0
      00086E 8D 82            [24] 2740 	mov	dpl,r5
      000870 8E 83            [24] 2741 	mov	dph,r6
      000872 8F F0            [24] 2742 	mov	b,r7
      000874 E4               [12] 2743 	clr	a
      000875 12r00r00         [24] 2744 	lcall	__gptrput
      000878                       2745 00137$:
                                   2746 ;	/opt/contiki/core/net/ip/tcpip.c:703: tcpip_output(uip_ds6_nbr_get_ll(nbr));
      000878 E5 81            [12] 2747 	mov	a,sp
      00087A 24 FB            [12] 2748 	add	a,#0xfb
      00087C F8               [12] 2749 	mov	r0,a
      00087D 86 82            [24] 2750 	mov	dpl,@r0
      00087F 08               [12] 2751 	inc	r0
      000880 86 83            [24] 2752 	mov	dph,@r0
      000882 08               [12] 2753 	inc	r0
      000883 86 F0            [24] 2754 	mov	b,@r0
      000885 78r00            [12] 2755 	mov	r0,#_uip_ds6_nbr_get_ll
      000887 79s00            [12] 2756 	mov	r1,#(_uip_ds6_nbr_get_ll >> 8)
      000889 7As00            [12] 2757 	mov	r2,#(_uip_ds6_nbr_get_ll >> 16)
      00088B 12r00r00         [24] 2758 	lcall	__sdcc_banked_call
      00088E 78r00            [12] 2759 	mov	r0,#_tcpip_output
      000890 79s00            [12] 2760 	mov	r1,#(_tcpip_output >> 8)
      000892 7As00            [12] 2761 	mov	r2,#(_tcpip_output >> 16)
      000894 12r00r00         [24] 2762 	lcall	__sdcc_banked_call
                                   2763 ;	/opt/contiki/core/net/ip/tcpip.c:720: uip_clear_buf();
      000897 90r00r00         [24] 2764 	mov	dptr,#_uip_len
      00089A E4               [12] 2765 	clr	a
      00089B F0               [24] 2766 	movx	@dptr,a
      00089C A3               [24] 2767 	inc	dptr
      00089D F0               [24] 2768 	movx	@dptr,a
      00089E 90r00r00         [24] 2769 	mov	dptr,#_uip_ext_len
      0008A1 F0               [24] 2770 	movx	@dptr,a
                                   2771 ;	/opt/contiki/core/net/ip/tcpip.c:721: return;
      0008A2 80 1A            [24] 2772 	sjmp	00143$
      0008A4                       2773 00142$:
                                   2774 ;	/opt/contiki/core/net/ip/tcpip.c:725: tcpip_output(NULL);
      0008A4 90 00 00         [24] 2775 	mov	dptr,#0x0000
      0008A7 75 F0 00         [24] 2776 	mov	b,#0x00
      0008AA 78r00            [12] 2777 	mov	r0,#_tcpip_output
      0008AC 79s00            [12] 2778 	mov	r1,#(_tcpip_output >> 8)
      0008AE 7As00            [12] 2779 	mov	r2,#(_tcpip_output >> 16)
      0008B0 12r00r00         [24] 2780 	lcall	__sdcc_banked_call
                                   2781 ;	/opt/contiki/core/net/ip/tcpip.c:726: uip_clear_buf();
      0008B3 90r00r00         [24] 2782 	mov	dptr,#_uip_len
      0008B6 E4               [12] 2783 	clr	a
      0008B7 F0               [24] 2784 	movx	@dptr,a
      0008B8 A3               [24] 2785 	inc	dptr
      0008B9 F0               [24] 2786 	movx	@dptr,a
      0008BA 90r00r00         [24] 2787 	mov	dptr,#_uip_ext_len
      0008BD F0               [24] 2788 	movx	@dptr,a
      0008BE                       2789 00143$:
      0008BE E5 81            [12] 2790 	mov	a,sp
      0008C0 24 F6            [12] 2791 	add	a,#0xF6
      0008C2 F5 81            [12] 2792 	mov	sp,a
      0008C4 02r00r00         [24] 2793 	ljmp	__sdcc_banked_ret
                                   2794 ;------------------------------------------------------------
                                   2795 ;Allocation info for local variables in function 'tcpip_poll_udp'
                                   2796 ;------------------------------------------------------------
                                   2797 ;conn                      Allocated to registers r5 r6 r7 
                                   2798 ;------------------------------------------------------------
                                   2799 ;	/opt/contiki/core/net/ip/tcpip.c:732: tcpip_poll_udp(struct uip_udp_conn *conn)
                                   2800 ;	-----------------------------------------
                                   2801 ;	 function tcpip_poll_udp
                                   2802 ;	-----------------------------------------
      0008C7                       2803 _tcpip_poll_udp:
      0008C7 AD 82            [24] 2804 	mov	r5,dpl
      0008C9 AE 83            [24] 2805 	mov	r6,dph
      0008CB AF F0            [24] 2806 	mov	r7,b
                                   2807 ;	/opt/contiki/core/net/ip/tcpip.c:734: process_post(&tcpip_process, UDP_POLL, conn);
      0008CD C0 05            [24] 2808 	push	ar5
      0008CF C0 06            [24] 2809 	push	ar6
      0008D1 C0 07            [24] 2810 	push	ar7
      0008D3 74 01            [12] 2811 	mov	a,#0x01
      0008D5 C0 E0            [24] 2812 	push	acc
      0008D7 90r00r00         [24] 2813 	mov	dptr,#_tcpip_process
      0008DA 75 F0 00         [24] 2814 	mov	b,#0x00
      0008DD 78r00            [12] 2815 	mov	r0,#_process_post
      0008DF 79s00            [12] 2816 	mov	r1,#(_process_post >> 8)
      0008E1 7As00            [12] 2817 	mov	r2,#(_process_post >> 16)
      0008E3 12r00r00         [24] 2818 	lcall	__sdcc_banked_call
      0008E6 E5 81            [12] 2819 	mov	a,sp
      0008E8 24 FC            [12] 2820 	add	a,#0xfc
      0008EA F5 81            [12] 2821 	mov	sp,a
      0008EC 02r00r00         [24] 2822 	ljmp	__sdcc_banked_ret
                                   2823 ;------------------------------------------------------------
                                   2824 ;Allocation info for local variables in function 'tcpip_uipcall'
                                   2825 ;------------------------------------------------------------
                                   2826 ;ts                        Allocated to registers r5 r6 r7 
                                   2827 ;------------------------------------------------------------
                                   2828 ;	/opt/contiki/core/net/ip/tcpip.c:747: tcpip_uipcall(void)
                                   2829 ;	-----------------------------------------
                                   2830 ;	 function tcpip_uipcall
                                   2831 ;	-----------------------------------------
      0008EF                       2832 _tcpip_uipcall:
                                   2833 ;	/opt/contiki/core/net/ip/tcpip.c:752: if(uip_conn != NULL) {
      0008EF 90r00r00         [24] 2834 	mov	dptr,#_uip_conn
      0008F2 E0               [24] 2835 	movx	a,@dptr
      0008F3 FD               [12] 2836 	mov	r5,a
      0008F4 A3               [24] 2837 	inc	dptr
      0008F5 E0               [24] 2838 	movx	a,@dptr
      0008F6 FE               [12] 2839 	mov	r6,a
      0008F7 A3               [24] 2840 	inc	dptr
      0008F8 E0               [24] 2841 	movx	a,@dptr
      0008F9 FF               [12] 2842 	mov	r7,a
      0008FA 90r00r00         [24] 2843 	mov	dptr,#_uip_conn
      0008FD E0               [24] 2844 	movx	a,@dptr
      0008FE F5 F0            [12] 2845 	mov	b,a
      000900 A3               [24] 2846 	inc	dptr
      000901 E0               [24] 2847 	movx	a,@dptr
      000902 45 F0            [12] 2848 	orl	a,b
      000904 60 09            [24] 2849 	jz	00102$
                                   2850 ;	/opt/contiki/core/net/ip/tcpip.c:753: ts = &uip_conn->appstate;
      000906 74 28            [12] 2851 	mov	a,#0x28
      000908 2D               [12] 2852 	add	a,r5
      000909 FD               [12] 2853 	mov	r5,a
      00090A E4               [12] 2854 	clr	a
      00090B 3E               [12] 2855 	addc	a,r6
      00090C FE               [12] 2856 	mov	r6,a
      00090D 80 14            [24] 2857 	sjmp	00103$
      00090F                       2858 00102$:
                                   2859 ;	/opt/contiki/core/net/ip/tcpip.c:755: ts = &uip_udp_conn->appstate;
      00090F 90r00r00         [24] 2860 	mov	dptr,#_uip_udp_conn
      000912 E0               [24] 2861 	movx	a,@dptr
      000913 FA               [12] 2862 	mov	r2,a
      000914 A3               [24] 2863 	inc	dptr
      000915 E0               [24] 2864 	movx	a,@dptr
      000916 FB               [12] 2865 	mov	r3,a
      000917 A3               [24] 2866 	inc	dptr
      000918 E0               [24] 2867 	movx	a,@dptr
      000919 FC               [12] 2868 	mov	r4,a
      00091A 74 15            [12] 2869 	mov	a,#0x15
      00091C 2A               [12] 2870 	add	a,r2
      00091D FD               [12] 2871 	mov	r5,a
      00091E E4               [12] 2872 	clr	a
      00091F 3B               [12] 2873 	addc	a,r3
      000920 FE               [12] 2874 	mov	r6,a
      000921 8C 07            [24] 2875 	mov	ar7,r4
      000923                       2876 00103$:
                                   2877 ;	/opt/contiki/core/net/ip/tcpip.c:786: if(ts->p != NULL) {
      000923 8D 82            [24] 2878 	mov	dpl,r5
      000925 8E 83            [24] 2879 	mov	dph,r6
      000927 8F F0            [24] 2880 	mov	b,r7
      000929 12r00r00         [24] 2881 	lcall	__gptrget
      00092C FA               [12] 2882 	mov	r2,a
      00092D A3               [24] 2883 	inc	dptr
      00092E 12r00r00         [24] 2884 	lcall	__gptrget
      000931 FB               [12] 2885 	mov	r3,a
      000932 A3               [24] 2886 	inc	dptr
      000933 12r00r00         [24] 2887 	lcall	__gptrget
      000936 FC               [12] 2888 	mov	r4,a
      000937 EA               [12] 2889 	mov	a,r2
      000938 4B               [12] 2890 	orl	a,r3
      000939 60 3C            [24] 2891 	jz	00106$
                                   2892 ;	/opt/contiki/core/net/ip/tcpip.c:787: process_post_synch(ts->p, tcpip_event, ts->state);
      00093B 74 03            [12] 2893 	mov	a,#0x03
      00093D 2D               [12] 2894 	add	a,r5
      00093E FD               [12] 2895 	mov	r5,a
      00093F E4               [12] 2896 	clr	a
      000940 3E               [12] 2897 	addc	a,r6
      000941 FE               [12] 2898 	mov	r6,a
      000942 8D 82            [24] 2899 	mov	dpl,r5
      000944 8E 83            [24] 2900 	mov	dph,r6
      000946 8F F0            [24] 2901 	mov	b,r7
      000948 12r00r00         [24] 2902 	lcall	__gptrget
      00094B FD               [12] 2903 	mov	r5,a
      00094C A3               [24] 2904 	inc	dptr
      00094D 12r00r00         [24] 2905 	lcall	__gptrget
      000950 FE               [12] 2906 	mov	r6,a
      000951 A3               [24] 2907 	inc	dptr
      000952 12r00r00         [24] 2908 	lcall	__gptrget
      000955 FF               [12] 2909 	mov	r7,a
      000956 C0 05            [24] 2910 	push	ar5
      000958 C0 06            [24] 2911 	push	ar6
      00095A C0 07            [24] 2912 	push	ar7
      00095C 90r00r00         [24] 2913 	mov	dptr,#_tcpip_event
      00095F E0               [24] 2914 	movx	a,@dptr
      000960 C0 E0            [24] 2915 	push	acc
      000962 8A 82            [24] 2916 	mov	dpl,r2
      000964 8B 83            [24] 2917 	mov	dph,r3
      000966 8C F0            [24] 2918 	mov	b,r4
      000968 78r00            [12] 2919 	mov	r0,#_process_post_synch
      00096A 79s00            [12] 2920 	mov	r1,#(_process_post_synch >> 8)
      00096C 7As00            [12] 2921 	mov	r2,#(_process_post_synch >> 16)
      00096E 12r00r00         [24] 2922 	lcall	__sdcc_banked_call
      000971 E5 81            [12] 2923 	mov	a,sp
      000973 24 FC            [12] 2924 	add	a,#0xfc
      000975 F5 81            [12] 2925 	mov	sp,a
      000977                       2926 00106$:
      000977 02r00r00         [24] 2927 	ljmp	__sdcc_banked_ret
                                   2928 ;------------------------------------------------------------
                                   2929 ;Allocation info for local variables in function 'process_thread_tcpip_process'
                                   2930 ;------------------------------------------------------------
                                   2931 ;ev                        Allocated to stack - sp -3
                                   2932 ;data                      Allocated to stack - sp -6
                                   2933 ;process_pt                Allocated to registers r5 r6 r7 
                                   2934 ;PT_YIELD_FLAG             Allocated to registers r4 
                                   2935 ;------------------------------------------------------------
                                   2936 ;	/opt/contiki/core/net/ip/tcpip.c:791: PROCESS_THREAD(tcpip_process, ev, data)
                                   2937 ;	-----------------------------------------
                                   2938 ;	 function process_thread_tcpip_process
                                   2939 ;	-----------------------------------------
      00097A                       2940 _process_thread_tcpip_process:
                                   2941 ;	/opt/contiki/core/net/ip/tcpip.c:793: PROCESS_BEGIN();
      00097A AD 82            [24] 2942 	mov	r5,dpl
      00097C AE 83            [24] 2943 	mov	r6,dph
      00097E AF F0            [24] 2944 	mov	r7,b
      000980 7C 01            [12] 2945 	mov	r4,#0x01
      000982 12r00r00         [24] 2946 	lcall	__gptrget
      000985 FA               [12] 2947 	mov	r2,a
      000986 A3               [24] 2948 	inc	dptr
      000987 12r00r00         [24] 2949 	lcall	__gptrget
      00098A FB               [12] 2950 	mov	r3,a
      00098B BA 00 05         [24] 2951 	cjne	r2,#0x00,00126$
      00098E BB 00 02         [24] 2952 	cjne	r3,#0x00,00126$
      000991 80 0B            [24] 2953 	sjmp	00101$
      000993                       2954 00126$:
      000993 BA 36 05         [24] 2955 	cjne	r2,#0x36,00127$
      000996 BB 03 02         [24] 2956 	cjne	r3,#0x03,00127$
      000999 80 6C            [24] 2957 	sjmp	00102$
      00099B                       2958 00127$:
      00099B 02r0Ar43         [24] 2959 	ljmp	00111$
      00099E                       2960 00101$:
                                   2961 ;	/opt/contiki/core/net/ip/tcpip.c:806: tcpip_event = process_alloc_event();
      00099E C0 07            [24] 2962 	push	ar7
      0009A0 C0 06            [24] 2963 	push	ar6
      0009A2 C0 05            [24] 2964 	push	ar5
      0009A4 78r00            [12] 2965 	mov	r0,#_process_alloc_event
      0009A6 79s00            [12] 2966 	mov	r1,#(_process_alloc_event >> 8)
      0009A8 7As00            [12] 2967 	mov	r2,#(_process_alloc_event >> 16)
      0009AA 12r00r00         [24] 2968 	lcall	__sdcc_banked_call
      0009AD E5 82            [12] 2969 	mov	a,dpl
      0009AF 90r00r00         [24] 2970 	mov	dptr,#_tcpip_event
      0009B2 F0               [24] 2971 	movx	@dptr,a
                                   2972 ;	/opt/contiki/core/net/ip/tcpip.c:808: tcpip_icmp6_event = process_alloc_event();
      0009B3 78r00            [12] 2973 	mov	r0,#_process_alloc_event
      0009B5 79s00            [12] 2974 	mov	r1,#(_process_alloc_event >> 8)
      0009B7 7As00            [12] 2975 	mov	r2,#(_process_alloc_event >> 16)
      0009B9 12r00r00         [24] 2976 	lcall	__sdcc_banked_call
      0009BC E5 82            [12] 2977 	mov	a,dpl
      0009BE 90r00r01         [24] 2978 	mov	dptr,#_tcpip_icmp6_event
      0009C1 F0               [24] 2979 	movx	@dptr,a
                                   2980 ;	/opt/contiki/core/net/ip/tcpip.c:810: etimer_set(&periodic, CLOCK_SECOND / 2);
      0009C2 74 40            [12] 2981 	mov	a,#0x40
      0009C4 C0 E0            [24] 2982 	push	acc
      0009C6 E4               [12] 2983 	clr	a
      0009C7 C0 E0            [24] 2984 	push	acc
      0009C9 90r00r02         [24] 2985 	mov	dptr,#_periodic
      0009CC 75 F0 00         [24] 2986 	mov	b,#0x00
      0009CF 78r00            [12] 2987 	mov	r0,#_etimer_set
      0009D1 79s00            [12] 2988 	mov	r1,#(_etimer_set >> 8)
      0009D3 7As00            [12] 2989 	mov	r2,#(_etimer_set >> 16)
      0009D5 12r00r00         [24] 2990 	lcall	__sdcc_banked_call
      0009D8 15 81            [12] 2991 	dec	sp
      0009DA 15 81            [12] 2992 	dec	sp
                                   2993 ;	/opt/contiki/core/net/ip/tcpip.c:812: uip_init();
      0009DC 78r00            [12] 2994 	mov	r0,#_uip_init
      0009DE 79s00            [12] 2995 	mov	r1,#(_uip_init >> 8)
      0009E0 7As00            [12] 2996 	mov	r2,#(_uip_init >> 16)
      0009E2 12r00r00         [24] 2997 	lcall	__sdcc_banked_call
                                   2998 ;	/opt/contiki/core/net/ip/tcpip.c:818: rpl_init();
      0009E5 78r00            [12] 2999 	mov	r0,#_rpl_init
      0009E7 79s00            [12] 3000 	mov	r1,#(_rpl_init >> 8)
      0009E9 7As00            [12] 3001 	mov	r2,#(_rpl_init >> 16)
      0009EB 12r00r00         [24] 3002 	lcall	__sdcc_banked_call
      0009EE D0 05            [24] 3003 	pop	ar5
      0009F0 D0 06            [24] 3004 	pop	ar6
      0009F2 D0 07            [24] 3005 	pop	ar7
                                   3006 ;	/opt/contiki/core/net/ip/tcpip.c:821: while(1) {
      0009F4                       3007 00109$:
                                   3008 ;	/opt/contiki/core/net/ip/tcpip.c:822: PROCESS_YIELD();
      0009F4 7C 00            [12] 3009 	mov	r4,#0x00
      0009F6 8D 82            [24] 3010 	mov	dpl,r5
      0009F8 8E 83            [24] 3011 	mov	dph,r6
      0009FA 8F F0            [24] 3012 	mov	b,r7
      0009FC 74 36            [12] 3013 	mov	a,#0x36
      0009FE 12r00r00         [24] 3014 	lcall	__gptrput
      000A01 A3               [24] 3015 	inc	dptr
      000A02 74 03            [12] 3016 	mov	a,#0x03
      000A04 12r00r00         [24] 3017 	lcall	__gptrput
      000A07                       3018 00102$:
      000A07 EC               [12] 3019 	mov	a,r4
      000A08 70 05            [24] 3020 	jnz	00106$
      000A0A 75 82 01         [24] 3021 	mov	dpl,#0x01
      000A0D 80 45            [24] 3022 	sjmp	00112$
      000A0F                       3023 00106$:
                                   3024 ;	/opt/contiki/core/net/ip/tcpip.c:823: eventhandler(ev, data);
      000A0F C0 07            [24] 3025 	push	ar7
      000A11 C0 06            [24] 3026 	push	ar6
      000A13 C0 05            [24] 3027 	push	ar5
      000A15 E5 81            [12] 3028 	mov	a,sp
      000A17 24 F7            [12] 3029 	add	a,#0xf7
      000A19 F8               [12] 3030 	mov	r0,a
      000A1A E6               [12] 3031 	mov	a,@r0
      000A1B C0 E0            [24] 3032 	push	acc
      000A1D 08               [12] 3033 	inc	r0
      000A1E E6               [12] 3034 	mov	a,@r0
      000A1F C0 E0            [24] 3035 	push	acc
      000A21 08               [12] 3036 	inc	r0
      000A22 E6               [12] 3037 	mov	a,@r0
      000A23 C0 E0            [24] 3038 	push	acc
      000A25 E5 81            [12] 3039 	mov	a,sp
      000A27 24 F7            [12] 3040 	add	a,#0xf7
      000A29 F8               [12] 3041 	mov	r0,a
      000A2A 86 82            [24] 3042 	mov	dpl,@r0
      000A2C 78rD4            [12] 3043 	mov	r0,#_eventhandler
      000A2E 79s02            [12] 3044 	mov	r1,#(_eventhandler >> 8)
      000A30 7As00            [12] 3045 	mov	r2,#(_eventhandler >> 16)
      000A32 12r00r00         [24] 3046 	lcall	__sdcc_banked_call
      000A35 15 81            [12] 3047 	dec	sp
      000A37 15 81            [12] 3048 	dec	sp
      000A39 15 81            [12] 3049 	dec	sp
      000A3B D0 05            [24] 3050 	pop	ar5
      000A3D D0 06            [24] 3051 	pop	ar6
      000A3F D0 07            [24] 3052 	pop	ar7
                                   3053 ;	/opt/contiki/core/net/ip/tcpip.c:826: PROCESS_END();
      000A41 80 B1            [24] 3054 	sjmp	00109$
      000A43                       3055 00111$:
      000A43 8D 82            [24] 3056 	mov	dpl,r5
      000A45 8E 83            [24] 3057 	mov	dph,r6
      000A47 8F F0            [24] 3058 	mov	b,r7
      000A49 E4               [12] 3059 	clr	a
      000A4A 12r00r00         [24] 3060 	lcall	__gptrput
      000A4D A3               [24] 3061 	inc	dptr
      000A4E 12r00r00         [24] 3062 	lcall	__gptrput
      000A51 75 82 03         [24] 3063 	mov	dpl,#0x03
      000A54                       3064 00112$:
      000A54 02r00r00         [24] 3065 	ljmp	__sdcc_banked_ret
                                   3066 	.area CSEG    (CODE)
                                   3067 	.area CONST   (CODE)
                                   3068 	.area XINIT   (CODE)
      000000                       3069 __xinit__tcpip_process:
                                   3070 ; generic printIvalPtr
      000000 00 00 00              3071 	.byte #0x00,#0x00,#0x00
      000003r7As09s00              3072 	.byte _process_thread_tcpip_process, (_process_thread_tcpip_process >> 8), (_process_thread_tcpip_process >> 16)
      000006 00 00                 3073 	.byte #0x00, #0x00
      000008 00                    3074 	.db #0x00	; 0
      000009 00                    3075 	.db #0x00	; 0
                                   3076 	.area CABS    (ABS,CODE)
